Archive member included to satisfy reference by file (symbol)

/home/gwarchol/Ac6/SystemWorkbench/plugins/fr.ac6.mcu.externaltools.arm-none.linux64_1.15.0.201708311556/tools/compiler/bin/../lib/gcc/arm-none-eabi/6.3.1/../../../../arm-none-eabi/lib/thumb/v7-m/libc_nano.a(lib_a-exit.o)
                              /home/gwarchol/Ac6/SystemWorkbench/plugins/fr.ac6.mcu.externaltools.arm-none.linux64_1.15.0.201708311556/tools/compiler/bin/../lib/gcc/arm-none-eabi/6.3.1/../../../../arm-none-eabi/lib/thumb/v7-m/rdimon-crt0.o (exit)
/home/gwarchol/Ac6/SystemWorkbench/plugins/fr.ac6.mcu.externaltools.arm-none.linux64_1.15.0.201708311556/tools/compiler/bin/../lib/gcc/arm-none-eabi/6.3.1/../../../../arm-none-eabi/lib/thumb/v7-m/libc_nano.a(lib_a-impure.o)
                              /home/gwarchol/Ac6/SystemWorkbench/plugins/fr.ac6.mcu.externaltools.arm-none.linux64_1.15.0.201708311556/tools/compiler/bin/../lib/gcc/arm-none-eabi/6.3.1/../../../../arm-none-eabi/lib/thumb/v7-m/libc_nano.a(lib_a-exit.o) (_global_impure_ptr)
/home/gwarchol/Ac6/SystemWorkbench/plugins/fr.ac6.mcu.externaltools.arm-none.linux64_1.15.0.201708311556/tools/compiler/bin/../lib/gcc/arm-none-eabi/6.3.1/../../../../arm-none-eabi/lib/thumb/v7-m/libc_nano.a(lib_a-init.o)
                              /home/gwarchol/Ac6/SystemWorkbench/plugins/fr.ac6.mcu.externaltools.arm-none.linux64_1.15.0.201708311556/tools/compiler/bin/../lib/gcc/arm-none-eabi/6.3.1/../../../../arm-none-eabi/lib/thumb/v7-m/rdimon-crt0.o (__libc_init_array)
/home/gwarchol/Ac6/SystemWorkbench/plugins/fr.ac6.mcu.externaltools.arm-none.linux64_1.15.0.201708311556/tools/compiler/bin/../lib/gcc/arm-none-eabi/6.3.1/../../../../arm-none-eabi/lib/thumb/v7-m/libc_nano.a(lib_a-memset.o)
                              /home/gwarchol/Ac6/SystemWorkbench/plugins/fr.ac6.mcu.externaltools.arm-none.linux64_1.15.0.201708311556/tools/compiler/bin/../lib/gcc/arm-none-eabi/6.3.1/../../../../arm-none-eabi/lib/thumb/v7-m/rdimon-crt0.o (memset)
/home/gwarchol/Ac6/SystemWorkbench/plugins/fr.ac6.mcu.externaltools.arm-none.linux64_1.15.0.201708311556/tools/compiler/bin/../lib/gcc/arm-none-eabi/6.3.1/../../../../arm-none-eabi/lib/thumb/v7-m/librdimon_nano.a(rdimon-syscalls.o)
                              /home/gwarchol/Ac6/SystemWorkbench/plugins/fr.ac6.mcu.externaltools.arm-none.linux64_1.15.0.201708311556/tools/compiler/bin/../lib/gcc/arm-none-eabi/6.3.1/../../../../arm-none-eabi/lib/thumb/v7-m/rdimon-crt0.o (initialise_monitor_handles)
/home/gwarchol/Ac6/SystemWorkbench/plugins/fr.ac6.mcu.externaltools.arm-none.linux64_1.15.0.201708311556/tools/compiler/bin/../lib/gcc/arm-none-eabi/6.3.1/../../../../arm-none-eabi/lib/thumb/v7-m/librdimon_nano.a(rdimon-_exit.o)
                              /home/gwarchol/Ac6/SystemWorkbench/plugins/fr.ac6.mcu.externaltools.arm-none.linux64_1.15.0.201708311556/tools/compiler/bin/../lib/gcc/arm-none-eabi/6.3.1/../../../../arm-none-eabi/lib/thumb/v7-m/libc_nano.a(lib_a-exit.o) (_exit)
/home/gwarchol/Ac6/SystemWorkbench/plugins/fr.ac6.mcu.externaltools.arm-none.linux64_1.15.0.201708311556/tools/compiler/bin/../lib/gcc/arm-none-eabi/6.3.1/../../../../arm-none-eabi/lib/thumb/v7-m/librdimon_nano.a(rdimon-_kill.o)
                              /home/gwarchol/Ac6/SystemWorkbench/plugins/fr.ac6.mcu.externaltools.arm-none.linux64_1.15.0.201708311556/tools/compiler/bin/../lib/gcc/arm-none-eabi/6.3.1/../../../../arm-none-eabi/lib/thumb/v7-m/librdimon_nano.a(rdimon-_exit.o) (_kill)
/home/gwarchol/Ac6/SystemWorkbench/plugins/fr.ac6.mcu.externaltools.arm-none.linux64_1.15.0.201708311556/tools/compiler/bin/../lib/gcc/arm-none-eabi/6.3.1/../../../../arm-none-eabi/lib/thumb/v7-m/libc_nano.a(lib_a-errno.o)
                              /home/gwarchol/Ac6/SystemWorkbench/plugins/fr.ac6.mcu.externaltools.arm-none.linux64_1.15.0.201708311556/tools/compiler/bin/../lib/gcc/arm-none-eabi/6.3.1/../../../../arm-none-eabi/lib/thumb/v7-m/librdimon_nano.a(rdimon-syscalls.o) (__errno)
/home/gwarchol/Ac6/SystemWorkbench/plugins/fr.ac6.mcu.externaltools.arm-none.linux64_1.15.0.201708311556/tools/compiler/bin/../lib/gcc/arm-none-eabi/6.3.1/../../../../arm-none-eabi/lib/thumb/v7-m/libc_nano.a(lib_a-findfp.o)
                              /home/gwarchol/Ac6/SystemWorkbench/plugins/fr.ac6.mcu.externaltools.arm-none.linux64_1.15.0.201708311556/tools/compiler/bin/../lib/gcc/arm-none-eabi/6.3.1/../../../../arm-none-eabi/lib/thumb/v7-m/librdimon_nano.a(rdimon-syscalls.o) (__sinit)
/home/gwarchol/Ac6/SystemWorkbench/plugins/fr.ac6.mcu.externaltools.arm-none.linux64_1.15.0.201708311556/tools/compiler/bin/../lib/gcc/arm-none-eabi/6.3.1/../../../../arm-none-eabi/lib/thumb/v7-m/libc_nano.a(lib_a-fwalk.o)
                              /home/gwarchol/Ac6/SystemWorkbench/plugins/fr.ac6.mcu.externaltools.arm-none.linux64_1.15.0.201708311556/tools/compiler/bin/../lib/gcc/arm-none-eabi/6.3.1/../../../../arm-none-eabi/lib/thumb/v7-m/libc_nano.a(lib_a-findfp.o) (_fwalk)
/home/gwarchol/Ac6/SystemWorkbench/plugins/fr.ac6.mcu.externaltools.arm-none.linux64_1.15.0.201708311556/tools/compiler/bin/../lib/gcc/arm-none-eabi/6.3.1/../../../../arm-none-eabi/lib/thumb/v7-m/libc_nano.a(lib_a-nano-mallocr.o)
                              /home/gwarchol/Ac6/SystemWorkbench/plugins/fr.ac6.mcu.externaltools.arm-none.linux64_1.15.0.201708311556/tools/compiler/bin/../lib/gcc/arm-none-eabi/6.3.1/../../../../arm-none-eabi/lib/thumb/v7-m/libc_nano.a(lib_a-findfp.o) (_malloc_r)
/home/gwarchol/Ac6/SystemWorkbench/plugins/fr.ac6.mcu.externaltools.arm-none.linux64_1.15.0.201708311556/tools/compiler/bin/../lib/gcc/arm-none-eabi/6.3.1/../../../../arm-none-eabi/lib/thumb/v7-m/libc_nano.a(lib_a-printf.o)
                              src/rtc.o (printf)
/home/gwarchol/Ac6/SystemWorkbench/plugins/fr.ac6.mcu.externaltools.arm-none.linux64_1.15.0.201708311556/tools/compiler/bin/../lib/gcc/arm-none-eabi/6.3.1/../../../../arm-none-eabi/lib/thumb/v7-m/libc_nano.a(lib_a-putchar.o)
                              src/touch_screen.o (putchar)
/home/gwarchol/Ac6/SystemWorkbench/plugins/fr.ac6.mcu.externaltools.arm-none.linux64_1.15.0.201708311556/tools/compiler/bin/../lib/gcc/arm-none-eabi/6.3.1/../../../../arm-none-eabi/lib/thumb/v7-m/libc_nano.a(lib_a-puts.o)
                              src/device_config.o (puts)
/home/gwarchol/Ac6/SystemWorkbench/plugins/fr.ac6.mcu.externaltools.arm-none.linux64_1.15.0.201708311556/tools/compiler/bin/../lib/gcc/arm-none-eabi/6.3.1/../../../../arm-none-eabi/lib/thumb/v7-m/libc_nano.a(lib_a-sbrkr.o)
                              /home/gwarchol/Ac6/SystemWorkbench/plugins/fr.ac6.mcu.externaltools.arm-none.linux64_1.15.0.201708311556/tools/compiler/bin/../lib/gcc/arm-none-eabi/6.3.1/../../../../arm-none-eabi/lib/thumb/v7-m/libc_nano.a(lib_a-nano-mallocr.o) (_sbrk_r)
/home/gwarchol/Ac6/SystemWorkbench/plugins/fr.ac6.mcu.externaltools.arm-none.linux64_1.15.0.201708311556/tools/compiler/bin/../lib/gcc/arm-none-eabi/6.3.1/../../../../arm-none-eabi/lib/thumb/v7-m/libc_nano.a(lib_a-sprintf.o)
                              src/bmp180.o (sprintf)
/home/gwarchol/Ac6/SystemWorkbench/plugins/fr.ac6.mcu.externaltools.arm-none.linux64_1.15.0.201708311556/tools/compiler/bin/../lib/gcc/arm-none-eabi/6.3.1/../../../../arm-none-eabi/lib/thumb/v7-m/libc_nano.a(lib_a-stdio.o)
                              /home/gwarchol/Ac6/SystemWorkbench/plugins/fr.ac6.mcu.externaltools.arm-none.linux64_1.15.0.201708311556/tools/compiler/bin/../lib/gcc/arm-none-eabi/6.3.1/../../../../arm-none-eabi/lib/thumb/v7-m/libc_nano.a(lib_a-findfp.o) (__sread)
/home/gwarchol/Ac6/SystemWorkbench/plugins/fr.ac6.mcu.externaltools.arm-none.linux64_1.15.0.201708311556/tools/compiler/bin/../lib/gcc/arm-none-eabi/6.3.1/../../../../arm-none-eabi/lib/thumb/v7-m/libc_nano.a(lib_a-strlen.o)
                              /home/gwarchol/Ac6/SystemWorkbench/plugins/fr.ac6.mcu.externaltools.arm-none.linux64_1.15.0.201708311556/tools/compiler/bin/../lib/gcc/arm-none-eabi/6.3.1/../../../../arm-none-eabi/lib/thumb/v7-m/librdimon_nano.a(rdimon-syscalls.o) (strlen)
/home/gwarchol/Ac6/SystemWorkbench/plugins/fr.ac6.mcu.externaltools.arm-none.linux64_1.15.0.201708311556/tools/compiler/bin/../lib/gcc/arm-none-eabi/6.3.1/../../../../arm-none-eabi/lib/thumb/v7-m/libc_nano.a(lib_a-wbuf.o)
                              /home/gwarchol/Ac6/SystemWorkbench/plugins/fr.ac6.mcu.externaltools.arm-none.linux64_1.15.0.201708311556/tools/compiler/bin/../lib/gcc/arm-none-eabi/6.3.1/../../../../arm-none-eabi/lib/thumb/v7-m/libc_nano.a(lib_a-puts.o) (__swbuf_r)
/home/gwarchol/Ac6/SystemWorkbench/plugins/fr.ac6.mcu.externaltools.arm-none.linux64_1.15.0.201708311556/tools/compiler/bin/../lib/gcc/arm-none-eabi/6.3.1/../../../../arm-none-eabi/lib/thumb/v7-m/libc_nano.a(lib_a-writer.o)
                              /home/gwarchol/Ac6/SystemWorkbench/plugins/fr.ac6.mcu.externaltools.arm-none.linux64_1.15.0.201708311556/tools/compiler/bin/../lib/gcc/arm-none-eabi/6.3.1/../../../../arm-none-eabi/lib/thumb/v7-m/libc_nano.a(lib_a-stdio.o) (_write_r)
/home/gwarchol/Ac6/SystemWorkbench/plugins/fr.ac6.mcu.externaltools.arm-none.linux64_1.15.0.201708311556/tools/compiler/bin/../lib/gcc/arm-none-eabi/6.3.1/../../../../arm-none-eabi/lib/thumb/v7-m/libc_nano.a(lib_a-wsetup.o)
                              /home/gwarchol/Ac6/SystemWorkbench/plugins/fr.ac6.mcu.externaltools.arm-none.linux64_1.15.0.201708311556/tools/compiler/bin/../lib/gcc/arm-none-eabi/6.3.1/../../../../arm-none-eabi/lib/thumb/v7-m/libc_nano.a(lib_a-puts.o) (__swsetup_r)
/home/gwarchol/Ac6/SystemWorkbench/plugins/fr.ac6.mcu.externaltools.arm-none.linux64_1.15.0.201708311556/tools/compiler/bin/../lib/gcc/arm-none-eabi/6.3.1/../../../../arm-none-eabi/lib/thumb/v7-m/libc_nano.a(lib_a-closer.o)
                              /home/gwarchol/Ac6/SystemWorkbench/plugins/fr.ac6.mcu.externaltools.arm-none.linux64_1.15.0.201708311556/tools/compiler/bin/../lib/gcc/arm-none-eabi/6.3.1/../../../../arm-none-eabi/lib/thumb/v7-m/libc_nano.a(lib_a-stdio.o) (_close_r)
/home/gwarchol/Ac6/SystemWorkbench/plugins/fr.ac6.mcu.externaltools.arm-none.linux64_1.15.0.201708311556/tools/compiler/bin/../lib/gcc/arm-none-eabi/6.3.1/../../../../arm-none-eabi/lib/thumb/v7-m/libc_nano.a(lib_a-fflush.o)
                              /home/gwarchol/Ac6/SystemWorkbench/plugins/fr.ac6.mcu.externaltools.arm-none.linux64_1.15.0.201708311556/tools/compiler/bin/../lib/gcc/arm-none-eabi/6.3.1/../../../../arm-none-eabi/lib/thumb/v7-m/libc_nano.a(lib_a-findfp.o) (_fflush_r)
/home/gwarchol/Ac6/SystemWorkbench/plugins/fr.ac6.mcu.externaltools.arm-none.linux64_1.15.0.201708311556/tools/compiler/bin/../lib/gcc/arm-none-eabi/6.3.1/../../../../arm-none-eabi/lib/thumb/v7-m/libc_nano.a(lib_a-lseekr.o)
                              /home/gwarchol/Ac6/SystemWorkbench/plugins/fr.ac6.mcu.externaltools.arm-none.linux64_1.15.0.201708311556/tools/compiler/bin/../lib/gcc/arm-none-eabi/6.3.1/../../../../arm-none-eabi/lib/thumb/v7-m/libc_nano.a(lib_a-stdio.o) (_lseek_r)
/home/gwarchol/Ac6/SystemWorkbench/plugins/fr.ac6.mcu.externaltools.arm-none.linux64_1.15.0.201708311556/tools/compiler/bin/../lib/gcc/arm-none-eabi/6.3.1/../../../../arm-none-eabi/lib/thumb/v7-m/libc_nano.a(lib_a-makebuf.o)
                              /home/gwarchol/Ac6/SystemWorkbench/plugins/fr.ac6.mcu.externaltools.arm-none.linux64_1.15.0.201708311556/tools/compiler/bin/../lib/gcc/arm-none-eabi/6.3.1/../../../../arm-none-eabi/lib/thumb/v7-m/libc_nano.a(lib_a-wsetup.o) (__smakebuf_r)
/home/gwarchol/Ac6/SystemWorkbench/plugins/fr.ac6.mcu.externaltools.arm-none.linux64_1.15.0.201708311556/tools/compiler/bin/../lib/gcc/arm-none-eabi/6.3.1/../../../../arm-none-eabi/lib/thumb/v7-m/libc_nano.a(lib_a-mlock.o)
                              /home/gwarchol/Ac6/SystemWorkbench/plugins/fr.ac6.mcu.externaltools.arm-none.linux64_1.15.0.201708311556/tools/compiler/bin/../lib/gcc/arm-none-eabi/6.3.1/../../../../arm-none-eabi/lib/thumb/v7-m/libc_nano.a(lib_a-nano-mallocr.o) (__malloc_lock)
/home/gwarchol/Ac6/SystemWorkbench/plugins/fr.ac6.mcu.externaltools.arm-none.linux64_1.15.0.201708311556/tools/compiler/bin/../lib/gcc/arm-none-eabi/6.3.1/../../../../arm-none-eabi/lib/thumb/v7-m/libc_nano.a(lib_a-nano-freer.o)
                              /home/gwarchol/Ac6/SystemWorkbench/plugins/fr.ac6.mcu.externaltools.arm-none.linux64_1.15.0.201708311556/tools/compiler/bin/../lib/gcc/arm-none-eabi/6.3.1/../../../../arm-none-eabi/lib/thumb/v7-m/libc_nano.a(lib_a-wsetup.o) (_free_r)
/home/gwarchol/Ac6/SystemWorkbench/plugins/fr.ac6.mcu.externaltools.arm-none.linux64_1.15.0.201708311556/tools/compiler/bin/../lib/gcc/arm-none-eabi/6.3.1/../../../../arm-none-eabi/lib/thumb/v7-m/libc_nano.a(lib_a-nano-svfprintf.o)
                              /home/gwarchol/Ac6/SystemWorkbench/plugins/fr.ac6.mcu.externaltools.arm-none.linux64_1.15.0.201708311556/tools/compiler/bin/../lib/gcc/arm-none-eabi/6.3.1/../../../../arm-none-eabi/lib/thumb/v7-m/libc_nano.a(lib_a-sprintf.o) (_svfprintf_r)
/home/gwarchol/Ac6/SystemWorkbench/plugins/fr.ac6.mcu.externaltools.arm-none.linux64_1.15.0.201708311556/tools/compiler/bin/../lib/gcc/arm-none-eabi/6.3.1/../../../../arm-none-eabi/lib/thumb/v7-m/libc_nano.a(lib_a-nano-vfprintf.o)
                              /home/gwarchol/Ac6/SystemWorkbench/plugins/fr.ac6.mcu.externaltools.arm-none.linux64_1.15.0.201708311556/tools/compiler/bin/../lib/gcc/arm-none-eabi/6.3.1/../../../../arm-none-eabi/lib/thumb/v7-m/libc_nano.a(lib_a-printf.o) (_vfprintf_r)
/home/gwarchol/Ac6/SystemWorkbench/plugins/fr.ac6.mcu.externaltools.arm-none.linux64_1.15.0.201708311556/tools/compiler/bin/../lib/gcc/arm-none-eabi/6.3.1/../../../../arm-none-eabi/lib/thumb/v7-m/libc_nano.a(lib_a-nano-vfprintf_i.o)
                              /home/gwarchol/Ac6/SystemWorkbench/plugins/fr.ac6.mcu.externaltools.arm-none.linux64_1.15.0.201708311556/tools/compiler/bin/../lib/gcc/arm-none-eabi/6.3.1/../../../../arm-none-eabi/lib/thumb/v7-m/libc_nano.a(lib_a-nano-svfprintf.o) (_printf_i)
/home/gwarchol/Ac6/SystemWorkbench/plugins/fr.ac6.mcu.externaltools.arm-none.linux64_1.15.0.201708311556/tools/compiler/bin/../lib/gcc/arm-none-eabi/6.3.1/../../../../arm-none-eabi/lib/thumb/v7-m/libc_nano.a(lib_a-putc.o)
                              /home/gwarchol/Ac6/SystemWorkbench/plugins/fr.ac6.mcu.externaltools.arm-none.linux64_1.15.0.201708311556/tools/compiler/bin/../lib/gcc/arm-none-eabi/6.3.1/../../../../arm-none-eabi/lib/thumb/v7-m/libc_nano.a(lib_a-putchar.o) (_putc_r)
/home/gwarchol/Ac6/SystemWorkbench/plugins/fr.ac6.mcu.externaltools.arm-none.linux64_1.15.0.201708311556/tools/compiler/bin/../lib/gcc/arm-none-eabi/6.3.1/../../../../arm-none-eabi/lib/thumb/v7-m/libc_nano.a(lib_a-readr.o)
                              /home/gwarchol/Ac6/SystemWorkbench/plugins/fr.ac6.mcu.externaltools.arm-none.linux64_1.15.0.201708311556/tools/compiler/bin/../lib/gcc/arm-none-eabi/6.3.1/../../../../arm-none-eabi/lib/thumb/v7-m/libc_nano.a(lib_a-stdio.o) (_read_r)
/home/gwarchol/Ac6/SystemWorkbench/plugins/fr.ac6.mcu.externaltools.arm-none.linux64_1.15.0.201708311556/tools/compiler/bin/../lib/gcc/arm-none-eabi/6.3.1/../../../../arm-none-eabi/lib/thumb/v7-m/libc_nano.a(lib_a-reent.o)
                              /home/gwarchol/Ac6/SystemWorkbench/plugins/fr.ac6.mcu.externaltools.arm-none.linux64_1.15.0.201708311556/tools/compiler/bin/../lib/gcc/arm-none-eabi/6.3.1/../../../../arm-none-eabi/lib/thumb/v7-m/libc_nano.a(lib_a-sbrkr.o) (errno)
/home/gwarchol/Ac6/SystemWorkbench/plugins/fr.ac6.mcu.externaltools.arm-none.linux64_1.15.0.201708311556/tools/compiler/bin/../lib/gcc/arm-none-eabi/6.3.1/../../../../arm-none-eabi/lib/thumb/v7-m/libc_nano.a(lib_a-fstatr.o)
                              /home/gwarchol/Ac6/SystemWorkbench/plugins/fr.ac6.mcu.externaltools.arm-none.linux64_1.15.0.201708311556/tools/compiler/bin/../lib/gcc/arm-none-eabi/6.3.1/../../../../arm-none-eabi/lib/thumb/v7-m/libc_nano.a(lib_a-makebuf.o) (_fstat_r)
/home/gwarchol/Ac6/SystemWorkbench/plugins/fr.ac6.mcu.externaltools.arm-none.linux64_1.15.0.201708311556/tools/compiler/bin/../lib/gcc/arm-none-eabi/6.3.1/../../../../arm-none-eabi/lib/thumb/v7-m/libc_nano.a(lib_a-fvwrite.o)
                              /home/gwarchol/Ac6/SystemWorkbench/plugins/fr.ac6.mcu.externaltools.arm-none.linux64_1.15.0.201708311556/tools/compiler/bin/../lib/gcc/arm-none-eabi/6.3.1/../../../../arm-none-eabi/lib/thumb/v7-m/libc_nano.a(lib_a-nano-vfprintf.o) (__sfvwrite_r)
/home/gwarchol/Ac6/SystemWorkbench/plugins/fr.ac6.mcu.externaltools.arm-none.linux64_1.15.0.201708311556/tools/compiler/bin/../lib/gcc/arm-none-eabi/6.3.1/../../../../arm-none-eabi/lib/thumb/v7-m/libc_nano.a(lib_a-isattyr.o)
                              /home/gwarchol/Ac6/SystemWorkbench/plugins/fr.ac6.mcu.externaltools.arm-none.linux64_1.15.0.201708311556/tools/compiler/bin/../lib/gcc/arm-none-eabi/6.3.1/../../../../arm-none-eabi/lib/thumb/v7-m/libc_nano.a(lib_a-makebuf.o) (_isatty_r)
/home/gwarchol/Ac6/SystemWorkbench/plugins/fr.ac6.mcu.externaltools.arm-none.linux64_1.15.0.201708311556/tools/compiler/bin/../lib/gcc/arm-none-eabi/6.3.1/../../../../arm-none-eabi/lib/thumb/v7-m/libc_nano.a(lib_a-memchr-stub.o)
                              /home/gwarchol/Ac6/SystemWorkbench/plugins/fr.ac6.mcu.externaltools.arm-none.linux64_1.15.0.201708311556/tools/compiler/bin/../lib/gcc/arm-none-eabi/6.3.1/../../../../arm-none-eabi/lib/thumb/v7-m/libc_nano.a(lib_a-nano-svfprintf.o) (memchr)
/home/gwarchol/Ac6/SystemWorkbench/plugins/fr.ac6.mcu.externaltools.arm-none.linux64_1.15.0.201708311556/tools/compiler/bin/../lib/gcc/arm-none-eabi/6.3.1/../../../../arm-none-eabi/lib/thumb/v7-m/libc_nano.a(lib_a-memcpy-stub.o)
                              /home/gwarchol/Ac6/SystemWorkbench/plugins/fr.ac6.mcu.externaltools.arm-none.linux64_1.15.0.201708311556/tools/compiler/bin/../lib/gcc/arm-none-eabi/6.3.1/../../../../arm-none-eabi/lib/thumb/v7-m/libc_nano.a(lib_a-nano-svfprintf.o) (memcpy)
/home/gwarchol/Ac6/SystemWorkbench/plugins/fr.ac6.mcu.externaltools.arm-none.linux64_1.15.0.201708311556/tools/compiler/bin/../lib/gcc/arm-none-eabi/6.3.1/../../../../arm-none-eabi/lib/thumb/v7-m/libc_nano.a(lib_a-memmove.o)
                              /home/gwarchol/Ac6/SystemWorkbench/plugins/fr.ac6.mcu.externaltools.arm-none.linux64_1.15.0.201708311556/tools/compiler/bin/../lib/gcc/arm-none-eabi/6.3.1/../../../../arm-none-eabi/lib/thumb/v7-m/libc_nano.a(lib_a-nano-svfprintf.o) (memmove)
/home/gwarchol/Ac6/SystemWorkbench/plugins/fr.ac6.mcu.externaltools.arm-none.linux64_1.15.0.201708311556/tools/compiler/bin/../lib/gcc/arm-none-eabi/6.3.1/../../../../arm-none-eabi/lib/thumb/v7-m/libc_nano.a(lib_a-nano-reallocr.o)
                              /home/gwarchol/Ac6/SystemWorkbench/plugins/fr.ac6.mcu.externaltools.arm-none.linux64_1.15.0.201708311556/tools/compiler/bin/../lib/gcc/arm-none-eabi/6.3.1/../../../../arm-none-eabi/lib/thumb/v7-m/libc_nano.a(lib_a-nano-svfprintf.o) (_realloc_r)
/home/gwarchol/Ac6/SystemWorkbench/plugins/fr.ac6.mcu.externaltools.arm-none.linux64_1.15.0.201708311556/tools/compiler/bin/../lib/gcc/arm-none-eabi/6.3.1/../../../../arm-none-eabi/lib/thumb/v7-m/libc_nano.a(lib_a-nano-msizer.o)
                              /home/gwarchol/Ac6/SystemWorkbench/plugins/fr.ac6.mcu.externaltools.arm-none.linux64_1.15.0.201708311556/tools/compiler/bin/../lib/gcc/arm-none-eabi/6.3.1/../../../../arm-none-eabi/lib/thumb/v7-m/libc_nano.a(lib_a-nano-reallocr.o) (_malloc_usable_size_r)

Allocating common symbols
Common symbol       size              file

s_DateStructVar     0x4               src/rtc.o
s_TimeStructVar     0x6               src/rtc.o
TIM_TimeBaseStructure
                    0xa               src/timers.o
s_AlarmDateStructVar
                    0x4               src/rtc.o
errno               0x4               /home/gwarchol/Ac6/SystemWorkbench/plugins/fr.ac6.mcu.externaltools.arm-none.linux64_1.15.0.201708311556/tools/compiler/bin/../lib/gcc/arm-none-eabi/6.3.1/../../../../arm-none-eabi/lib/thumb/v7-m/libc_nano.a(lib_a-reent.o)
temp_buff           0x64              src/uart_interrupt.o
temp_data           0x6               src/main.o
RX_USART_TEMP_BUFFER
                    0x80              src/usart_dma.o
u_temp              0x4               src/bmp180.o
_RX_USART_BUFFOR    0x83              src/uart_interrupt.o
mp3_RXc             0x1               src/DFPPlayer.o
u_pres              0x4               src/bmp180.o
_TX_USART_BUFFOR    0x83              src/uart_interrupt.o
dmaStructure        0x2c              lib/ILI9341/dma.o
TIM_OCInitStructure
                    0x10              src/timers.o
dmaBuffer           0x1000            lib/ILI9341/dma.o
GPIO_InitStruct     0x4               src/device_config.o
rt                  0x4               src/bmp180.o
preassure_str       0xf               src/menu.o
rp                  0x4               src/bmp180.o
temperature_str     0xa               src/menu.o
touch_screeen_data_in
                    0x6               src/touch_screen.o
s_AlarmStructVar    0x6               src/rtc.o
GPIO_InitStructure  0x4               src/touch_screen.o
SPI_InitStructure   0x12              src/touch_screen.o
USART_InitStructure
                    0x10              src/main.o
BMP180_Calibration  0x1c              src/bmp180.o
touch_data          0x3               src/touch_screen.o
touch_screeen_data  0x6               src/touch_screen.o
DMA_InitStructure   0x2c              src/touch_screen.o
mp3_RXi             0x1               src/DFPPlayer.o

Discarded input sections

 .text          0x0000000000000000        0x0 /home/gwarchol/Ac6/SystemWorkbench/plugins/fr.ac6.mcu.externaltools.arm-none.linux64_1.15.0.201708311556/tools/compiler/bin/../lib/gcc/arm-none-eabi/6.3.1/thumb/v7-m/crti.o
 .data          0x0000000000000000        0x0 /home/gwarchol/Ac6/SystemWorkbench/plugins/fr.ac6.mcu.externaltools.arm-none.linux64_1.15.0.201708311556/tools/compiler/bin/../lib/gcc/arm-none-eabi/6.3.1/thumb/v7-m/crti.o
 .bss           0x0000000000000000        0x0 /home/gwarchol/Ac6/SystemWorkbench/plugins/fr.ac6.mcu.externaltools.arm-none.linux64_1.15.0.201708311556/tools/compiler/bin/../lib/gcc/arm-none-eabi/6.3.1/thumb/v7-m/crti.o
 .data          0x0000000000000000        0x4 /home/gwarchol/Ac6/SystemWorkbench/plugins/fr.ac6.mcu.externaltools.arm-none.linux64_1.15.0.201708311556/tools/compiler/bin/../lib/gcc/arm-none-eabi/6.3.1/thumb/v7-m/crtbegin.o
 .text          0x0000000000000000       0xe8 /home/gwarchol/Ac6/SystemWorkbench/plugins/fr.ac6.mcu.externaltools.arm-none.linux64_1.15.0.201708311556/tools/compiler/bin/../lib/gcc/arm-none-eabi/6.3.1/../../../../arm-none-eabi/lib/thumb/v7-m/rdimon-crt0.o
 .data          0x0000000000000000      0x118 /home/gwarchol/Ac6/SystemWorkbench/plugins/fr.ac6.mcu.externaltools.arm-none.linux64_1.15.0.201708311556/tools/compiler/bin/../lib/gcc/arm-none-eabi/6.3.1/../../../../arm-none-eabi/lib/thumb/v7-m/rdimon-crt0.o
 .bss           0x0000000000000000        0x0 /home/gwarchol/Ac6/SystemWorkbench/plugins/fr.ac6.mcu.externaltools.arm-none.linux64_1.15.0.201708311556/tools/compiler/bin/../lib/gcc/arm-none-eabi/6.3.1/../../../../arm-none-eabi/lib/thumb/v7-m/rdimon-crt0.o
 .ARM.extab     0x0000000000000000        0x0 /home/gwarchol/Ac6/SystemWorkbench/plugins/fr.ac6.mcu.externaltools.arm-none.linux64_1.15.0.201708311556/tools/compiler/bin/../lib/gcc/arm-none-eabi/6.3.1/../../../../arm-none-eabi/lib/thumb/v7-m/rdimon-crt0.o
 .ARM.exidx     0x0000000000000000        0x8 /home/gwarchol/Ac6/SystemWorkbench/plugins/fr.ac6.mcu.externaltools.arm-none.linux64_1.15.0.201708311556/tools/compiler/bin/../lib/gcc/arm-none-eabi/6.3.1/../../../../arm-none-eabi/lib/thumb/v7-m/rdimon-crt0.o
 .ARM.attributes
                0x0000000000000000       0x1b /home/gwarchol/Ac6/SystemWorkbench/plugins/fr.ac6.mcu.externaltools.arm-none.linux64_1.15.0.201708311556/tools/compiler/bin/../lib/gcc/arm-none-eabi/6.3.1/../../../../arm-none-eabi/lib/thumb/v7-m/rdimon-crt0.o
 .text          0x0000000000000000        0x0 /home/gwarchol/Ac6/SystemWorkbench/plugins/fr.ac6.mcu.externaltools.arm-none.linux64_1.15.0.201708311556/tools/compiler/bin/../lib/gcc/arm-none-eabi/6.3.1/../../../../arm-none-eabi/lib/thumb/v7-m/libc_nano.a(lib_a-exit.o)
 .data          0x0000000000000000        0x0 /home/gwarchol/Ac6/SystemWorkbench/plugins/fr.ac6.mcu.externaltools.arm-none.linux64_1.15.0.201708311556/tools/compiler/bin/../lib/gcc/arm-none-eabi/6.3.1/../../../../arm-none-eabi/lib/thumb/v7-m/libc_nano.a(lib_a-exit.o)
 .bss           0x0000000000000000        0x0 /home/gwarchol/Ac6/SystemWorkbench/plugins/fr.ac6.mcu.externaltools.arm-none.linux64_1.15.0.201708311556/tools/compiler/bin/../lib/gcc/arm-none-eabi/6.3.1/../../../../arm-none-eabi/lib/thumb/v7-m/libc_nano.a(lib_a-exit.o)
 .text.exit     0x0000000000000000       0x28 /home/gwarchol/Ac6/SystemWorkbench/plugins/fr.ac6.mcu.externaltools.arm-none.linux64_1.15.0.201708311556/tools/compiler/bin/../lib/gcc/arm-none-eabi/6.3.1/../../../../arm-none-eabi/lib/thumb/v7-m/libc_nano.a(lib_a-exit.o)
 .debug_frame   0x0000000000000000       0x28 /home/gwarchol/Ac6/SystemWorkbench/plugins/fr.ac6.mcu.externaltools.arm-none.linux64_1.15.0.201708311556/tools/compiler/bin/../lib/gcc/arm-none-eabi/6.3.1/../../../../arm-none-eabi/lib/thumb/v7-m/libc_nano.a(lib_a-exit.o)
 .ARM.attributes
                0x0000000000000000       0x2d /home/gwarchol/Ac6/SystemWorkbench/plugins/fr.ac6.mcu.externaltools.arm-none.linux64_1.15.0.201708311556/tools/compiler/bin/../lib/gcc/arm-none-eabi/6.3.1/../../../../arm-none-eabi/lib/thumb/v7-m/libc_nano.a(lib_a-exit.o)
 .text          0x0000000000000000        0x0 /home/gwarchol/Ac6/SystemWorkbench/plugins/fr.ac6.mcu.externaltools.arm-none.linux64_1.15.0.201708311556/tools/compiler/bin/../lib/gcc/arm-none-eabi/6.3.1/../../../../arm-none-eabi/lib/thumb/v7-m/libc_nano.a(lib_a-impure.o)
 .data          0x0000000000000000        0x0 /home/gwarchol/Ac6/SystemWorkbench/plugins/fr.ac6.mcu.externaltools.arm-none.linux64_1.15.0.201708311556/tools/compiler/bin/../lib/gcc/arm-none-eabi/6.3.1/../../../../arm-none-eabi/lib/thumb/v7-m/libc_nano.a(lib_a-impure.o)
 .bss           0x0000000000000000        0x0 /home/gwarchol/Ac6/SystemWorkbench/plugins/fr.ac6.mcu.externaltools.arm-none.linux64_1.15.0.201708311556/tools/compiler/bin/../lib/gcc/arm-none-eabi/6.3.1/../../../../arm-none-eabi/lib/thumb/v7-m/libc_nano.a(lib_a-impure.o)
 .text          0x0000000000000000        0x0 /home/gwarchol/Ac6/SystemWorkbench/plugins/fr.ac6.mcu.externaltools.arm-none.linux64_1.15.0.201708311556/tools/compiler/bin/../lib/gcc/arm-none-eabi/6.3.1/../../../../arm-none-eabi/lib/thumb/v7-m/libc_nano.a(lib_a-init.o)
 .data          0x0000000000000000        0x0 /home/gwarchol/Ac6/SystemWorkbench/plugins/fr.ac6.mcu.externaltools.arm-none.linux64_1.15.0.201708311556/tools/compiler/bin/../lib/gcc/arm-none-eabi/6.3.1/../../../../arm-none-eabi/lib/thumb/v7-m/libc_nano.a(lib_a-init.o)
 .bss           0x0000000000000000        0x0 /home/gwarchol/Ac6/SystemWorkbench/plugins/fr.ac6.mcu.externaltools.arm-none.linux64_1.15.0.201708311556/tools/compiler/bin/../lib/gcc/arm-none-eabi/6.3.1/../../../../arm-none-eabi/lib/thumb/v7-m/libc_nano.a(lib_a-init.o)
 .text          0x0000000000000000        0x0 /home/gwarchol/Ac6/SystemWorkbench/plugins/fr.ac6.mcu.externaltools.arm-none.linux64_1.15.0.201708311556/tools/compiler/bin/../lib/gcc/arm-none-eabi/6.3.1/../../../../arm-none-eabi/lib/thumb/v7-m/libc_nano.a(lib_a-memset.o)
 .data          0x0000000000000000        0x0 /home/gwarchol/Ac6/SystemWorkbench/plugins/fr.ac6.mcu.externaltools.arm-none.linux64_1.15.0.201708311556/tools/compiler/bin/../lib/gcc/arm-none-eabi/6.3.1/../../../../arm-none-eabi/lib/thumb/v7-m/libc_nano.a(lib_a-memset.o)
 .bss           0x0000000000000000        0x0 /home/gwarchol/Ac6/SystemWorkbench/plugins/fr.ac6.mcu.externaltools.arm-none.linux64_1.15.0.201708311556/tools/compiler/bin/../lib/gcc/arm-none-eabi/6.3.1/../../../../arm-none-eabi/lib/thumb/v7-m/libc_nano.a(lib_a-memset.o)
 .text          0x0000000000000000        0x0 /home/gwarchol/Ac6/SystemWorkbench/plugins/fr.ac6.mcu.externaltools.arm-none.linux64_1.15.0.201708311556/tools/compiler/bin/../lib/gcc/arm-none-eabi/6.3.1/../../../../arm-none-eabi/lib/thumb/v7-m/librdimon_nano.a(rdimon-syscalls.o)
 .data          0x0000000000000000        0x0 /home/gwarchol/Ac6/SystemWorkbench/plugins/fr.ac6.mcu.externaltools.arm-none.linux64_1.15.0.201708311556/tools/compiler/bin/../lib/gcc/arm-none-eabi/6.3.1/../../../../arm-none-eabi/lib/thumb/v7-m/librdimon_nano.a(rdimon-syscalls.o)
 .bss           0x0000000000000000        0x0 /home/gwarchol/Ac6/SystemWorkbench/plugins/fr.ac6.mcu.externaltools.arm-none.linux64_1.15.0.201708311556/tools/compiler/bin/../lib/gcc/arm-none-eabi/6.3.1/../../../../arm-none-eabi/lib/thumb/v7-m/librdimon_nano.a(rdimon-syscalls.o)
 .text._getpid  0x0000000000000000        0x4 /home/gwarchol/Ac6/SystemWorkbench/plugins/fr.ac6.mcu.externaltools.arm-none.linux64_1.15.0.201708311556/tools/compiler/bin/../lib/gcc/arm-none-eabi/6.3.1/../../../../arm-none-eabi/lib/thumb/v7-m/librdimon_nano.a(rdimon-syscalls.o)
 .text._stat    0x0000000000000000       0x3a /home/gwarchol/Ac6/SystemWorkbench/plugins/fr.ac6.mcu.externaltools.arm-none.linux64_1.15.0.201708311556/tools/compiler/bin/../lib/gcc/arm-none-eabi/6.3.1/../../../../arm-none-eabi/lib/thumb/v7-m/librdimon_nano.a(rdimon-syscalls.o)
 .text._swiopen
                0x0000000000000000       0xb8 /home/gwarchol/Ac6/SystemWorkbench/plugins/fr.ac6.mcu.externaltools.arm-none.linux64_1.15.0.201708311556/tools/compiler/bin/../lib/gcc/arm-none-eabi/6.3.1/../../../../arm-none-eabi/lib/thumb/v7-m/librdimon_nano.a(rdimon-syscalls.o)
 .text._open    0x0000000000000000       0x12 /home/gwarchol/Ac6/SystemWorkbench/plugins/fr.ac6.mcu.externaltools.arm-none.linux64_1.15.0.201708311556/tools/compiler/bin/../lib/gcc/arm-none-eabi/6.3.1/../../../../arm-none-eabi/lib/thumb/v7-m/librdimon_nano.a(rdimon-syscalls.o)
 .text._link    0x0000000000000000       0x10 /home/gwarchol/Ac6/SystemWorkbench/plugins/fr.ac6.mcu.externaltools.arm-none.linux64_1.15.0.201708311556/tools/compiler/bin/../lib/gcc/arm-none-eabi/6.3.1/../../../../arm-none-eabi/lib/thumb/v7-m/librdimon_nano.a(rdimon-syscalls.o)
 .text._unlink  0x0000000000000000       0x28 /home/gwarchol/Ac6/SystemWorkbench/plugins/fr.ac6.mcu.externaltools.arm-none.linux64_1.15.0.201708311556/tools/compiler/bin/../lib/gcc/arm-none-eabi/6.3.1/../../../../arm-none-eabi/lib/thumb/v7-m/librdimon_nano.a(rdimon-syscalls.o)
 .text._gettimeofday
                0x0000000000000000       0x24 /home/gwarchol/Ac6/SystemWorkbench/plugins/fr.ac6.mcu.externaltools.arm-none.linux64_1.15.0.201708311556/tools/compiler/bin/../lib/gcc/arm-none-eabi/6.3.1/../../../../arm-none-eabi/lib/thumb/v7-m/librdimon_nano.a(rdimon-syscalls.o)
 .text._clock   0x0000000000000000       0x12 /home/gwarchol/Ac6/SystemWorkbench/plugins/fr.ac6.mcu.externaltools.arm-none.linux64_1.15.0.201708311556/tools/compiler/bin/../lib/gcc/arm-none-eabi/6.3.1/../../../../arm-none-eabi/lib/thumb/v7-m/librdimon_nano.a(rdimon-syscalls.o)
 .text._times   0x0000000000000000       0x16 /home/gwarchol/Ac6/SystemWorkbench/plugins/fr.ac6.mcu.externaltools.arm-none.linux64_1.15.0.201708311556/tools/compiler/bin/../lib/gcc/arm-none-eabi/6.3.1/../../../../arm-none-eabi/lib/thumb/v7-m/librdimon_nano.a(rdimon-syscalls.o)
 .text._system  0x0000000000000000       0x3c /home/gwarchol/Ac6/SystemWorkbench/plugins/fr.ac6.mcu.externaltools.arm-none.linux64_1.15.0.201708311556/tools/compiler/bin/../lib/gcc/arm-none-eabi/6.3.1/../../../../arm-none-eabi/lib/thumb/v7-m/librdimon_nano.a(rdimon-syscalls.o)
 .text._rename  0x0000000000000000       0x36 /home/gwarchol/Ac6/SystemWorkbench/plugins/fr.ac6.mcu.externaltools.arm-none.linux64_1.15.0.201708311556/tools/compiler/bin/../lib/gcc/arm-none-eabi/6.3.1/../../../../arm-none-eabi/lib/thumb/v7-m/librdimon_nano.a(rdimon-syscalls.o)
 .text          0x0000000000000000        0x0 /home/gwarchol/Ac6/SystemWorkbench/plugins/fr.ac6.mcu.externaltools.arm-none.linux64_1.15.0.201708311556/tools/compiler/bin/../lib/gcc/arm-none-eabi/6.3.1/../../../../arm-none-eabi/lib/thumb/v7-m/librdimon_nano.a(rdimon-_exit.o)
 .data          0x0000000000000000        0x0 /home/gwarchol/Ac6/SystemWorkbench/plugins/fr.ac6.mcu.externaltools.arm-none.linux64_1.15.0.201708311556/tools/compiler/bin/../lib/gcc/arm-none-eabi/6.3.1/../../../../arm-none-eabi/lib/thumb/v7-m/librdimon_nano.a(rdimon-_exit.o)
 .bss           0x0000000000000000        0x0 /home/gwarchol/Ac6/SystemWorkbench/plugins/fr.ac6.mcu.externaltools.arm-none.linux64_1.15.0.201708311556/tools/compiler/bin/../lib/gcc/arm-none-eabi/6.3.1/../../../../arm-none-eabi/lib/thumb/v7-m/librdimon_nano.a(rdimon-_exit.o)
 .text._exit    0x0000000000000000        0x8 /home/gwarchol/Ac6/SystemWorkbench/plugins/fr.ac6.mcu.externaltools.arm-none.linux64_1.15.0.201708311556/tools/compiler/bin/../lib/gcc/arm-none-eabi/6.3.1/../../../../arm-none-eabi/lib/thumb/v7-m/librdimon_nano.a(rdimon-_exit.o)
 .debug_frame   0x0000000000000000       0x20 /home/gwarchol/Ac6/SystemWorkbench/plugins/fr.ac6.mcu.externaltools.arm-none.linux64_1.15.0.201708311556/tools/compiler/bin/../lib/gcc/arm-none-eabi/6.3.1/../../../../arm-none-eabi/lib/thumb/v7-m/librdimon_nano.a(rdimon-_exit.o)
 .ARM.attributes
                0x0000000000000000       0x2d /home/gwarchol/Ac6/SystemWorkbench/plugins/fr.ac6.mcu.externaltools.arm-none.linux64_1.15.0.201708311556/tools/compiler/bin/../lib/gcc/arm-none-eabi/6.3.1/../../../../arm-none-eabi/lib/thumb/v7-m/librdimon_nano.a(rdimon-_exit.o)
 .text          0x0000000000000000        0x0 /home/gwarchol/Ac6/SystemWorkbench/plugins/fr.ac6.mcu.externaltools.arm-none.linux64_1.15.0.201708311556/tools/compiler/bin/../lib/gcc/arm-none-eabi/6.3.1/../../../../arm-none-eabi/lib/thumb/v7-m/librdimon_nano.a(rdimon-_kill.o)
 .data          0x0000000000000000        0x0 /home/gwarchol/Ac6/SystemWorkbench/plugins/fr.ac6.mcu.externaltools.arm-none.linux64_1.15.0.201708311556/tools/compiler/bin/../lib/gcc/arm-none-eabi/6.3.1/../../../../arm-none-eabi/lib/thumb/v7-m/librdimon_nano.a(rdimon-_kill.o)
 .bss           0x0000000000000000        0x0 /home/gwarchol/Ac6/SystemWorkbench/plugins/fr.ac6.mcu.externaltools.arm-none.linux64_1.15.0.201708311556/tools/compiler/bin/../lib/gcc/arm-none-eabi/6.3.1/../../../../arm-none-eabi/lib/thumb/v7-m/librdimon_nano.a(rdimon-_kill.o)
 .text._kill    0x0000000000000000       0x20 /home/gwarchol/Ac6/SystemWorkbench/plugins/fr.ac6.mcu.externaltools.arm-none.linux64_1.15.0.201708311556/tools/compiler/bin/../lib/gcc/arm-none-eabi/6.3.1/../../../../arm-none-eabi/lib/thumb/v7-m/librdimon_nano.a(rdimon-_kill.o)
 .debug_frame   0x0000000000000000       0x2c /home/gwarchol/Ac6/SystemWorkbench/plugins/fr.ac6.mcu.externaltools.arm-none.linux64_1.15.0.201708311556/tools/compiler/bin/../lib/gcc/arm-none-eabi/6.3.1/../../../../arm-none-eabi/lib/thumb/v7-m/librdimon_nano.a(rdimon-_kill.o)
 .ARM.attributes
                0x0000000000000000       0x2d /home/gwarchol/Ac6/SystemWorkbench/plugins/fr.ac6.mcu.externaltools.arm-none.linux64_1.15.0.201708311556/tools/compiler/bin/../lib/gcc/arm-none-eabi/6.3.1/../../../../arm-none-eabi/lib/thumb/v7-m/librdimon_nano.a(rdimon-_kill.o)
 .text          0x0000000000000000        0x0 CMSIS/core/core_cm3.o
 .data          0x0000000000000000        0x0 CMSIS/core/core_cm3.o
 .bss           0x0000000000000000        0x0 CMSIS/core/core_cm3.o
 .text.__get_PSP
                0x0000000000000000        0x8 CMSIS/core/core_cm3.o
 .text.__set_PSP
                0x0000000000000000        0x6 CMSIS/core/core_cm3.o
 .text.__get_MSP
                0x0000000000000000        0x8 CMSIS/core/core_cm3.o
 .text.__set_MSP
                0x0000000000000000        0x6 CMSIS/core/core_cm3.o
 .text.__get_BASEPRI
                0x0000000000000000        0x6 CMSIS/core/core_cm3.o
 .text.__set_BASEPRI
                0x0000000000000000        0x6 CMSIS/core/core_cm3.o
 .text.__get_PRIMASK
                0x0000000000000000        0x6 CMSIS/core/core_cm3.o
 .text.__set_PRIMASK
                0x0000000000000000        0x6 CMSIS/core/core_cm3.o
 .text.__get_FAULTMASK
                0x0000000000000000        0x6 CMSIS/core/core_cm3.o
 .text.__set_FAULTMASK
                0x0000000000000000        0x6 CMSIS/core/core_cm3.o
 .text.__get_CONTROL
                0x0000000000000000        0x6 CMSIS/core/core_cm3.o
 .text.__set_CONTROL
                0x0000000000000000        0x6 CMSIS/core/core_cm3.o
 .text.__REV    0x0000000000000000        0x6 CMSIS/core/core_cm3.o
 .text.__REV16  0x0000000000000000        0x6 CMSIS/core/core_cm3.o
 .text.__REVSH  0x0000000000000000        0x6 CMSIS/core/core_cm3.o
 .text.__RBIT   0x0000000000000000        0x8 CMSIS/core/core_cm3.o
 .text.__LDREXB
                0x0000000000000000        0x8 CMSIS/core/core_cm3.o
 .text.__LDREXH
                0x0000000000000000        0x8 CMSIS/core/core_cm3.o
 .text.__LDREXW
                0x0000000000000000        0x8 CMSIS/core/core_cm3.o
 .text.__STREXB
                0x0000000000000000        0x8 CMSIS/core/core_cm3.o
 .text.__STREXH
                0x0000000000000000        0x8 CMSIS/core/core_cm3.o
 .text.__STREXW
                0x0000000000000000        0x8 CMSIS/core/core_cm3.o
 .debug_info    0x0000000000000000      0x540 CMSIS/core/core_cm3.o
 .debug_abbrev  0x0000000000000000       0xbd CMSIS/core/core_cm3.o
 .debug_loc     0x0000000000000000      0x33a CMSIS/core/core_cm3.o
 .debug_aranges
                0x0000000000000000       0xc8 CMSIS/core/core_cm3.o
 .debug_ranges  0x0000000000000000       0xb8 CMSIS/core/core_cm3.o
 .debug_line    0x0000000000000000      0x312 CMSIS/core/core_cm3.o
 .debug_str     0x0000000000000000      0x304 CMSIS/core/core_cm3.o
 .comment       0x0000000000000000       0x80 CMSIS/core/core_cm3.o
 .debug_frame   0x0000000000000000      0x170 CMSIS/core/core_cm3.o
 .ARM.attributes
                0x0000000000000000       0x33 CMSIS/core/core_cm3.o
 .text          0x0000000000000000        0x0 StdPeriph_Driver/src/misc.o
 .data          0x0000000000000000        0x0 StdPeriph_Driver/src/misc.o
 .bss           0x0000000000000000        0x0 StdPeriph_Driver/src/misc.o
 .text.NVIC_SetVectorTable
                0x0000000000000000       0x14 StdPeriph_Driver/src/misc.o
 .text.SysTick_CLKSourceConfig
                0x0000000000000000       0x20 StdPeriph_Driver/src/misc.o
 .text          0x0000000000000000        0x0 StdPeriph_Driver/src/stm32f10x_adc.o
 .data          0x0000000000000000        0x0 StdPeriph_Driver/src/stm32f10x_adc.o
 .bss           0x0000000000000000        0x0 StdPeriph_Driver/src/stm32f10x_adc.o
 .text.ADC_DeInit
                0x0000000000000000       0x64 StdPeriph_Driver/src/stm32f10x_adc.o
 .text.ADC_Init
                0x0000000000000000       0x48 StdPeriph_Driver/src/stm32f10x_adc.o
 .text.ADC_StructInit
                0x0000000000000000       0x12 StdPeriph_Driver/src/stm32f10x_adc.o
 .text.ADC_Cmd  0x0000000000000000       0x16 StdPeriph_Driver/src/stm32f10x_adc.o
 .text.ADC_DMACmd
                0x0000000000000000       0x16 StdPeriph_Driver/src/stm32f10x_adc.o
 .text.ADC_ITConfig
                0x0000000000000000       0x16 StdPeriph_Driver/src/stm32f10x_adc.o
 .text.ADC_ResetCalibration
                0x0000000000000000        0xa StdPeriph_Driver/src/stm32f10x_adc.o
 .text.ADC_GetResetCalibrationStatus
                0x0000000000000000       0x10 StdPeriph_Driver/src/stm32f10x_adc.o
 .text.ADC_StartCalibration
                0x0000000000000000        0xa StdPeriph_Driver/src/stm32f10x_adc.o
 .text.ADC_GetCalibrationStatus
                0x0000000000000000       0x10 StdPeriph_Driver/src/stm32f10x_adc.o
 .text.ADC_SoftwareStartConvCmd
                0x0000000000000000       0x16 StdPeriph_Driver/src/stm32f10x_adc.o
 .text.ADC_GetSoftwareStartConvStatus
                0x0000000000000000       0x10 StdPeriph_Driver/src/stm32f10x_adc.o
 .text.ADC_DiscModeChannelCountConfig
                0x0000000000000000       0x10 StdPeriph_Driver/src/stm32f10x_adc.o
 .text.ADC_DiscModeCmd
                0x0000000000000000       0x16 StdPeriph_Driver/src/stm32f10x_adc.o
 .text.ADC_RegularChannelConfig
                0x0000000000000000       0x90 StdPeriph_Driver/src/stm32f10x_adc.o
 .text.ADC_ExternalTrigConvCmd
                0x0000000000000000       0x16 StdPeriph_Driver/src/stm32f10x_adc.o
 .text.ADC_GetConversionValue
                0x0000000000000000        0x6 StdPeriph_Driver/src/stm32f10x_adc.o
 .text.ADC_GetDualModeConversionValue
                0x0000000000000000        0xc StdPeriph_Driver/src/stm32f10x_adc.o
 .text.ADC_AutoInjectedConvCmd
                0x0000000000000000       0x16 StdPeriph_Driver/src/stm32f10x_adc.o
 .text.ADC_InjectedDiscModeCmd
                0x0000000000000000       0x16 StdPeriph_Driver/src/stm32f10x_adc.o
 .text.ADC_ExternalTrigInjectedConvConfig
                0x0000000000000000        0xc StdPeriph_Driver/src/stm32f10x_adc.o
 .text.ADC_ExternalTrigInjectedConvCmd
                0x0000000000000000       0x16 StdPeriph_Driver/src/stm32f10x_adc.o
 .text.ADC_SoftwareStartInjectedConvCmd
                0x0000000000000000       0x16 StdPeriph_Driver/src/stm32f10x_adc.o
 .text.ADC_GetSoftwareStartInjectedConvCmdStatus
                0x0000000000000000       0x10 StdPeriph_Driver/src/stm32f10x_adc.o
 .text.ADC_InjectedChannelConfig
                0x0000000000000000       0x5a StdPeriph_Driver/src/stm32f10x_adc.o
 .text.ADC_InjectedSequencerLengthConfig
                0x0000000000000000       0x10 StdPeriph_Driver/src/stm32f10x_adc.o
 .text.ADC_SetInjectedOffset
                0x0000000000000000       0x16 StdPeriph_Driver/src/stm32f10x_adc.o
 .text.ADC_GetInjectedConversionValue
                0x0000000000000000       0x1a StdPeriph_Driver/src/stm32f10x_adc.o
 .text.ADC_AnalogWatchdogCmd
                0x0000000000000000       0x10 StdPeriph_Driver/src/stm32f10x_adc.o
 .text.ADC_AnalogWatchdogThresholdsConfig
                0x0000000000000000        0x6 StdPeriph_Driver/src/stm32f10x_adc.o
 .text.ADC_AnalogWatchdogSingleChannelConfig
                0x0000000000000000        0xc StdPeriph_Driver/src/stm32f10x_adc.o
 .text.ADC_TempSensorVrefintCmd
                0x0000000000000000       0x20 StdPeriph_Driver/src/stm32f10x_adc.o
 .text.ADC_GetFlagStatus
                0x0000000000000000        0xe StdPeriph_Driver/src/stm32f10x_adc.o
 .text.ADC_ClearFlag
                0x0000000000000000        0x6 StdPeriph_Driver/src/stm32f10x_adc.o
 .text.ADC_GetITStatus
                0x0000000000000000       0x1c StdPeriph_Driver/src/stm32f10x_adc.o
 .text.ADC_ClearITPendingBit
                0x0000000000000000        0x8 StdPeriph_Driver/src/stm32f10x_adc.o
 .debug_info    0x0000000000000000      0xc1e StdPeriph_Driver/src/stm32f10x_adc.o
 .debug_abbrev  0x0000000000000000      0x1f5 StdPeriph_Driver/src/stm32f10x_adc.o
 .debug_loc     0x0000000000000000      0x98f StdPeriph_Driver/src/stm32f10x_adc.o
 .debug_aranges
                0x0000000000000000      0x138 StdPeriph_Driver/src/stm32f10x_adc.o
 .debug_ranges  0x0000000000000000      0x128 StdPeriph_Driver/src/stm32f10x_adc.o
 .debug_line    0x0000000000000000      0x5c5 StdPeriph_Driver/src/stm32f10x_adc.o
 .debug_str     0x0000000000000000      0x753 StdPeriph_Driver/src/stm32f10x_adc.o
 .comment       0x0000000000000000       0x80 StdPeriph_Driver/src/stm32f10x_adc.o
 .debug_frame   0x0000000000000000      0x29c StdPeriph_Driver/src/stm32f10x_adc.o
 .ARM.attributes
                0x0000000000000000       0x33 StdPeriph_Driver/src/stm32f10x_adc.o
 .text          0x0000000000000000        0x0 StdPeriph_Driver/src/stm32f10x_bkp.o
 .data          0x0000000000000000        0x0 StdPeriph_Driver/src/stm32f10x_bkp.o
 .bss           0x0000000000000000        0x0 StdPeriph_Driver/src/stm32f10x_bkp.o
 .text.BKP_TamperPinLevelConfig
                0x0000000000000000        0xc StdPeriph_Driver/src/stm32f10x_bkp.o
 .text.BKP_TamperPinCmd
                0x0000000000000000        0xc StdPeriph_Driver/src/stm32f10x_bkp.o
 .text.BKP_ITConfig
                0x0000000000000000        0xc StdPeriph_Driver/src/stm32f10x_bkp.o
 .text.BKP_RTCOutputConfig
                0x0000000000000000       0x14 StdPeriph_Driver/src/stm32f10x_bkp.o
 .text.BKP_SetRTCCalibrationValue
                0x0000000000000000       0x14 StdPeriph_Driver/src/stm32f10x_bkp.o
 .text.BKP_GetFlagStatus
                0x0000000000000000        0xc StdPeriph_Driver/src/stm32f10x_bkp.o
 .text.BKP_ClearFlag
                0x0000000000000000       0x14 StdPeriph_Driver/src/stm32f10x_bkp.o
 .text.BKP_GetITStatus
                0x0000000000000000        0xc StdPeriph_Driver/src/stm32f10x_bkp.o
 .text.BKP_ClearITPendingBit
                0x0000000000000000       0x14 StdPeriph_Driver/src/stm32f10x_bkp.o
 .text          0x0000000000000000        0x0 StdPeriph_Driver/src/stm32f10x_can.o
 .data          0x0000000000000000        0x0 StdPeriph_Driver/src/stm32f10x_can.o
 .bss           0x0000000000000000        0x0 StdPeriph_Driver/src/stm32f10x_can.o
 .text.CheckITStatus
                0x0000000000000000        0xc StdPeriph_Driver/src/stm32f10x_can.o
 .text.CAN_DeInit
                0x0000000000000000       0x38 StdPeriph_Driver/src/stm32f10x_can.o
 .text.CAN_Init
                0x0000000000000000      0x10e StdPeriph_Driver/src/stm32f10x_can.o
 .text.CAN_FilterInit
                0x0000000000000000       0xfc StdPeriph_Driver/src/stm32f10x_can.o
 .text.CAN_StructInit
                0x0000000000000000       0x20 StdPeriph_Driver/src/stm32f10x_can.o
 .text.CAN_SlaveStartBank
                0x0000000000000000       0x3c StdPeriph_Driver/src/stm32f10x_can.o
 .text.CAN_DBGFreeze
                0x0000000000000000       0x16 StdPeriph_Driver/src/stm32f10x_can.o
 .text.CAN_TTComModeCmd
                0x0000000000000000       0x5e StdPeriph_Driver/src/stm32f10x_can.o
 .text.CAN_Transmit
                0x0000000000000000       0xd0 StdPeriph_Driver/src/stm32f10x_can.o
 .text.CAN_TransmitStatus
                0x0000000000000000       0x70 StdPeriph_Driver/src/stm32f10x_can.o
 .text.CAN_CancelTransmit
                0x0000000000000000       0x2a StdPeriph_Driver/src/stm32f10x_can.o
 .text.CAN_Receive
                0x0000000000000000       0xa4 StdPeriph_Driver/src/stm32f10x_can.o
 .text.CAN_FIFORelease
                0x0000000000000000       0x16 StdPeriph_Driver/src/stm32f10x_can.o
 .text.CAN_MessagePending
                0x0000000000000000       0x1a StdPeriph_Driver/src/stm32f10x_can.o
 .text.CAN_OperatingModeRequest
                0x0000000000000000       0xa0 StdPeriph_Driver/src/stm32f10x_can.o
 .text.CAN_Sleep
                0x0000000000000000       0x1e StdPeriph_Driver/src/stm32f10x_can.o
 .text.CAN_WakeUp
                0x0000000000000000       0x2c StdPeriph_Driver/src/stm32f10x_can.o
 .text.CAN_GetLastErrorCode
                0x0000000000000000        0x8 StdPeriph_Driver/src/stm32f10x_can.o
 .text.CAN_GetReceiveErrorCounter
                0x0000000000000000        0x6 StdPeriph_Driver/src/stm32f10x_can.o
 .text.CAN_GetLSBTransmitErrorCounter
                0x0000000000000000        0x8 StdPeriph_Driver/src/stm32f10x_can.o
 .text.CAN_ITConfig
                0x0000000000000000       0x14 StdPeriph_Driver/src/stm32f10x_can.o
 .text.CAN_GetFlagStatus
                0x0000000000000000       0x72 StdPeriph_Driver/src/stm32f10x_can.o
 .text.CAN_ClearFlag
                0x0000000000000000       0x38 StdPeriph_Driver/src/stm32f10x_can.o
 .text.CAN_GetITStatus
                0x0000000000000000       0xec StdPeriph_Driver/src/stm32f10x_can.o
 .text.CAN_ClearITPendingBit
                0x0000000000000000       0xa0 StdPeriph_Driver/src/stm32f10x_can.o
 .debug_info    0x0000000000000000      0xd25 StdPeriph_Driver/src/stm32f10x_can.o
 .debug_abbrev  0x0000000000000000      0x23f StdPeriph_Driver/src/stm32f10x_can.o
 .debug_loc     0x0000000000000000      0xd7c StdPeriph_Driver/src/stm32f10x_can.o
 .debug_aranges
                0x0000000000000000       0xe0 StdPeriph_Driver/src/stm32f10x_can.o
 .debug_ranges  0x0000000000000000       0xd0 StdPeriph_Driver/src/stm32f10x_can.o
 .debug_line    0x0000000000000000      0x665 StdPeriph_Driver/src/stm32f10x_can.o
 .debug_str     0x0000000000000000      0x786 StdPeriph_Driver/src/stm32f10x_can.o
 .comment       0x0000000000000000       0x80 StdPeriph_Driver/src/stm32f10x_can.o
 .debug_frame   0x0000000000000000      0x1f4 StdPeriph_Driver/src/stm32f10x_can.o
 .ARM.attributes
                0x0000000000000000       0x33 StdPeriph_Driver/src/stm32f10x_can.o
 .text          0x0000000000000000        0x0 StdPeriph_Driver/src/stm32f10x_cec.o
 .data          0x0000000000000000        0x0 StdPeriph_Driver/src/stm32f10x_cec.o
 .bss           0x0000000000000000        0x0 StdPeriph_Driver/src/stm32f10x_cec.o
 .text.CEC_DeInit
                0x0000000000000000       0x18 StdPeriph_Driver/src/stm32f10x_cec.o
 .text.CEC_Init
                0x0000000000000000       0x18 StdPeriph_Driver/src/stm32f10x_cec.o
 .text.CEC_Cmd  0x0000000000000000       0x1c StdPeriph_Driver/src/stm32f10x_cec.o
 .text.CEC_ITConfig
                0x0000000000000000        0xc StdPeriph_Driver/src/stm32f10x_cec.o
 .text.CEC_OwnAddressConfig
                0x0000000000000000        0xc StdPeriph_Driver/src/stm32f10x_cec.o
 .text.CEC_SetPrescaler
                0x0000000000000000        0xc StdPeriph_Driver/src/stm32f10x_cec.o
 .text.CEC_SendDataByte
                0x0000000000000000        0xc StdPeriph_Driver/src/stm32f10x_cec.o
 .text.CEC_ReceiveDataByte
                0x0000000000000000        0xc StdPeriph_Driver/src/stm32f10x_cec.o
 .text.CEC_StartOfMessage
                0x0000000000000000        0xc StdPeriph_Driver/src/stm32f10x_cec.o
 .text.CEC_EndOfMessageCmd
                0x0000000000000000        0xc StdPeriph_Driver/src/stm32f10x_cec.o
 .text.CEC_GetFlagStatus
                0x0000000000000000       0x28 StdPeriph_Driver/src/stm32f10x_cec.o
 .text.CEC_ClearFlag
                0x0000000000000000       0x1c StdPeriph_Driver/src/stm32f10x_cec.o
 .text.CEC_GetITStatus
                0x0000000000000000       0x20 StdPeriph_Driver/src/stm32f10x_cec.o
 .text.CEC_ClearITPendingBit
                0x0000000000000000       0x1c StdPeriph_Driver/src/stm32f10x_cec.o
 .debug_info    0x0000000000000000      0x465 StdPeriph_Driver/src/stm32f10x_cec.o
 .debug_abbrev  0x0000000000000000      0x1fe StdPeriph_Driver/src/stm32f10x_cec.o
 .debug_loc     0x0000000000000000      0x231 StdPeriph_Driver/src/stm32f10x_cec.o
 .debug_aranges
                0x0000000000000000       0x88 StdPeriph_Driver/src/stm32f10x_cec.o
 .debug_ranges  0x0000000000000000       0x78 StdPeriph_Driver/src/stm32f10x_cec.o
 .debug_line    0x0000000000000000      0x3ab StdPeriph_Driver/src/stm32f10x_cec.o
 .debug_str     0x0000000000000000      0x3ce StdPeriph_Driver/src/stm32f10x_cec.o
 .comment       0x0000000000000000       0x80 StdPeriph_Driver/src/stm32f10x_cec.o
 .debug_frame   0x0000000000000000       0xf8 StdPeriph_Driver/src/stm32f10x_cec.o
 .ARM.attributes
                0x0000000000000000       0x33 StdPeriph_Driver/src/stm32f10x_cec.o
 .text          0x0000000000000000        0x0 StdPeriph_Driver/src/stm32f10x_crc.o
 .data          0x0000000000000000        0x0 StdPeriph_Driver/src/stm32f10x_crc.o
 .bss           0x0000000000000000        0x0 StdPeriph_Driver/src/stm32f10x_crc.o
 .text.CRC_ResetDR
                0x0000000000000000        0xc StdPeriph_Driver/src/stm32f10x_crc.o
 .text.CRC_CalcCRC
                0x0000000000000000        0xc StdPeriph_Driver/src/stm32f10x_crc.o
 .text.CRC_CalcBlockCRC
                0x0000000000000000       0x28 StdPeriph_Driver/src/stm32f10x_crc.o
 .text.CRC_GetCRC
                0x0000000000000000        0xc StdPeriph_Driver/src/stm32f10x_crc.o
 .text.CRC_SetIDRegister
                0x0000000000000000        0xc StdPeriph_Driver/src/stm32f10x_crc.o
 .text.CRC_GetIDRegister
                0x0000000000000000        0xc StdPeriph_Driver/src/stm32f10x_crc.o
 .debug_info    0x0000000000000000      0x202 StdPeriph_Driver/src/stm32f10x_crc.o
 .debug_abbrev  0x0000000000000000      0x136 StdPeriph_Driver/src/stm32f10x_crc.o
 .debug_loc     0x0000000000000000       0x8f StdPeriph_Driver/src/stm32f10x_crc.o
 .debug_aranges
                0x0000000000000000       0x48 StdPeriph_Driver/src/stm32f10x_crc.o
 .debug_ranges  0x0000000000000000       0x38 StdPeriph_Driver/src/stm32f10x_crc.o
 .debug_line    0x0000000000000000      0x2a9 StdPeriph_Driver/src/stm32f10x_crc.o
 .debug_str     0x0000000000000000      0x27c StdPeriph_Driver/src/stm32f10x_crc.o
 .comment       0x0000000000000000       0x80 StdPeriph_Driver/src/stm32f10x_crc.o
 .debug_frame   0x0000000000000000       0x7c StdPeriph_Driver/src/stm32f10x_crc.o
 .ARM.attributes
                0x0000000000000000       0x33 StdPeriph_Driver/src/stm32f10x_crc.o
 .text          0x0000000000000000        0x0 StdPeriph_Driver/src/stm32f10x_dac.o
 .data          0x0000000000000000        0x0 StdPeriph_Driver/src/stm32f10x_dac.o
 .bss           0x0000000000000000        0x0 StdPeriph_Driver/src/stm32f10x_dac.o
 .text.DAC_DeInit
                0x0000000000000000       0x18 StdPeriph_Driver/src/stm32f10x_dac.o
 .text.DAC_Init
                0x0000000000000000       0x30 StdPeriph_Driver/src/stm32f10x_dac.o
 .text.DAC_StructInit
                0x0000000000000000        0xc StdPeriph_Driver/src/stm32f10x_dac.o
 .text.DAC_Cmd  0x0000000000000000       0x28 StdPeriph_Driver/src/stm32f10x_dac.o
 .text.DAC_DMACmd
                0x0000000000000000       0x2c StdPeriph_Driver/src/stm32f10x_dac.o
 .text.DAC_SoftwareTriggerCmd
                0x0000000000000000       0x2c StdPeriph_Driver/src/stm32f10x_dac.o
 .text.DAC_DualSoftwareTriggerCmd
                0x0000000000000000       0x20 StdPeriph_Driver/src/stm32f10x_dac.o
 .text.DAC_WaveGenerationCmd
                0x0000000000000000       0x20 StdPeriph_Driver/src/stm32f10x_dac.o
 .text.DAC_SetChannel1Data
                0x0000000000000000       0x20 StdPeriph_Driver/src/stm32f10x_dac.o
 .text.DAC_SetChannel2Data
                0x0000000000000000       0x20 StdPeriph_Driver/src/stm32f10x_dac.o
 .text.DAC_SetDualChannelData
                0x0000000000000000       0x18 StdPeriph_Driver/src/stm32f10x_dac.o
 .text.DAC_GetDataOutputValue
                0x0000000000000000       0x24 StdPeriph_Driver/src/stm32f10x_dac.o
 .debug_info    0x0000000000000000      0x4f9 StdPeriph_Driver/src/stm32f10x_dac.o
 .debug_abbrev  0x0000000000000000      0x1d2 StdPeriph_Driver/src/stm32f10x_dac.o
 .debug_loc     0x0000000000000000      0x36e StdPeriph_Driver/src/stm32f10x_dac.o
 .debug_aranges
                0x0000000000000000       0x78 StdPeriph_Driver/src/stm32f10x_dac.o
 .debug_ranges  0x0000000000000000       0x68 StdPeriph_Driver/src/stm32f10x_dac.o
 .debug_line    0x0000000000000000      0x38e StdPeriph_Driver/src/stm32f10x_dac.o
 .debug_str     0x0000000000000000      0x407 StdPeriph_Driver/src/stm32f10x_dac.o
 .comment       0x0000000000000000       0x80 StdPeriph_Driver/src/stm32f10x_dac.o
 .debug_frame   0x0000000000000000       0xfc StdPeriph_Driver/src/stm32f10x_dac.o
 .ARM.attributes
                0x0000000000000000       0x33 StdPeriph_Driver/src/stm32f10x_dac.o
 .text          0x0000000000000000        0x0 StdPeriph_Driver/src/stm32f10x_dbgmcu.o
 .data          0x0000000000000000        0x0 StdPeriph_Driver/src/stm32f10x_dbgmcu.o
 .bss           0x0000000000000000        0x0 StdPeriph_Driver/src/stm32f10x_dbgmcu.o
 .text.DBGMCU_GetREVID
                0x0000000000000000        0xc StdPeriph_Driver/src/stm32f10x_dbgmcu.o
 .text.DBGMCU_GetDEVID
                0x0000000000000000       0x10 StdPeriph_Driver/src/stm32f10x_dbgmcu.o
 .text          0x0000000000000000        0x0 StdPeriph_Driver/src/stm32f10x_dma.o
 .data          0x0000000000000000        0x0 StdPeriph_Driver/src/stm32f10x_dma.o
 .bss           0x0000000000000000        0x0 StdPeriph_Driver/src/stm32f10x_dma.o
 .text.DMA_DeInit
                0x0000000000000000      0x128 StdPeriph_Driver/src/stm32f10x_dma.o
 .text.DMA_SetCurrDataCounter
                0x0000000000000000        0x4 StdPeriph_Driver/src/stm32f10x_dma.o
 .text.DMA_GetCurrDataCounter
                0x0000000000000000        0x6 StdPeriph_Driver/src/stm32f10x_dma.o
 .text.DMA_GetFlagStatus
                0x0000000000000000       0x24 StdPeriph_Driver/src/stm32f10x_dma.o
 .text.DMA_ClearFlag
                0x0000000000000000       0x1c StdPeriph_Driver/src/stm32f10x_dma.o
 .text          0x0000000000000000        0x0 StdPeriph_Driver/src/stm32f10x_exti.o
 .data          0x0000000000000000        0x0 StdPeriph_Driver/src/stm32f10x_exti.o
 .bss           0x0000000000000000        0x0 StdPeriph_Driver/src/stm32f10x_exti.o
 .text.EXTI_DeInit
                0x0000000000000000       0x1c StdPeriph_Driver/src/stm32f10x_exti.o
 .text.EXTI_StructInit
                0x0000000000000000        0xe StdPeriph_Driver/src/stm32f10x_exti.o
 .text.EXTI_GenerateSWInterrupt
                0x0000000000000000       0x10 StdPeriph_Driver/src/stm32f10x_exti.o
 .text.EXTI_GetFlagStatus
                0x0000000000000000       0x14 StdPeriph_Driver/src/stm32f10x_exti.o
 .text.EXTI_ClearFlag
                0x0000000000000000        0xc StdPeriph_Driver/src/stm32f10x_exti.o
 .text.EXTI_GetITStatus
                0x0000000000000000       0x20 StdPeriph_Driver/src/stm32f10x_exti.o
 .text          0x0000000000000000        0x0 StdPeriph_Driver/src/stm32f10x_flash.o
 .data          0x0000000000000000        0x0 StdPeriph_Driver/src/stm32f10x_flash.o
 .bss           0x0000000000000000        0x0 StdPeriph_Driver/src/stm32f10x_flash.o
 .text.FLASH_HalfCycleAccessCmd
                0x0000000000000000       0x18 StdPeriph_Driver/src/stm32f10x_flash.o
 .text.FLASH_Unlock
                0x0000000000000000       0x18 StdPeriph_Driver/src/stm32f10x_flash.o
 .text.FLASH_UnlockBank1
                0x0000000000000000       0x18 StdPeriph_Driver/src/stm32f10x_flash.o
 .text.FLASH_Lock
                0x0000000000000000       0x10 StdPeriph_Driver/src/stm32f10x_flash.o
 .text.FLASH_LockBank1
                0x0000000000000000       0x10 StdPeriph_Driver/src/stm32f10x_flash.o
 .text.FLASH_GetUserOptionByte
                0x0000000000000000        0xc StdPeriph_Driver/src/stm32f10x_flash.o
 .text.FLASH_GetWriteProtectionOptionByte
                0x0000000000000000        0xc StdPeriph_Driver/src/stm32f10x_flash.o
 .text.FLASH_GetReadOutProtectionStatus
                0x0000000000000000       0x18 StdPeriph_Driver/src/stm32f10x_flash.o
 .text.FLASH_GetPrefetchBufferStatus
                0x0000000000000000       0x18 StdPeriph_Driver/src/stm32f10x_flash.o
 .text.FLASH_ITConfig
                0x0000000000000000       0x1c StdPeriph_Driver/src/stm32f10x_flash.o
 .text.FLASH_GetFlagStatus
                0x0000000000000000       0x28 StdPeriph_Driver/src/stm32f10x_flash.o
 .text.FLASH_ClearFlag
                0x0000000000000000        0xc StdPeriph_Driver/src/stm32f10x_flash.o
 .text.FLASH_GetStatus
                0x0000000000000000       0x34 StdPeriph_Driver/src/stm32f10x_flash.o
 .text.FLASH_GetBank1Status
                0x0000000000000000       0x34 StdPeriph_Driver/src/stm32f10x_flash.o
 .text.FLASH_WaitForLastOperation
                0x0000000000000000       0x1e StdPeriph_Driver/src/stm32f10x_flash.o
 .text.FLASH_ErasePage
                0x0000000000000000       0x40 StdPeriph_Driver/src/stm32f10x_flash.o
 .text.FLASH_EraseAllPages
                0x0000000000000000       0x3c StdPeriph_Driver/src/stm32f10x_flash.o
 .text.FLASH_EraseOptionBytes
                0x0000000000000000       0x9c StdPeriph_Driver/src/stm32f10x_flash.o
 .text.FLASH_ProgramWord
                0x0000000000000000       0x6c StdPeriph_Driver/src/stm32f10x_flash.o
 .text.FLASH_ProgramHalfWord
                0x0000000000000000       0x3c StdPeriph_Driver/src/stm32f10x_flash.o
 .text.FLASH_ProgramOptionByteData
                0x0000000000000000       0x50 StdPeriph_Driver/src/stm32f10x_flash.o
 .text.FLASH_EnableWriteProtection
                0x0000000000000000       0xa4 StdPeriph_Driver/src/stm32f10x_flash.o
 .text.FLASH_ReadOutProtection
                0x0000000000000000       0x9c StdPeriph_Driver/src/stm32f10x_flash.o
 .text.FLASH_UserOptionByteConfig
                0x0000000000000000       0x60 StdPeriph_Driver/src/stm32f10x_flash.o
 .text.FLASH_WaitForLastBank1Operation
                0x0000000000000000       0x1e StdPeriph_Driver/src/stm32f10x_flash.o
 .text.FLASH_EraseAllBank1Pages
                0x0000000000000000       0x3c StdPeriph_Driver/src/stm32f10x_flash.o
 .text          0x0000000000000000        0x0 StdPeriph_Driver/src/stm32f10x_fsmc.o
 .data          0x0000000000000000        0x0 StdPeriph_Driver/src/stm32f10x_fsmc.o
 .bss           0x0000000000000000        0x0 StdPeriph_Driver/src/stm32f10x_fsmc.o
 .text.FSMC_NORSRAMDeInit
                0x0000000000000000       0x36 StdPeriph_Driver/src/stm32f10x_fsmc.o
 .text.FSMC_NANDDeInit
                0x0000000000000000       0x34 StdPeriph_Driver/src/stm32f10x_fsmc.o
 .text.FSMC_PCCARDDeInit
                0x0000000000000000       0x1c StdPeriph_Driver/src/stm32f10x_fsmc.o
 .text.FSMC_NORSRAMInit
                0x0000000000000000       0xcc StdPeriph_Driver/src/stm32f10x_fsmc.o
 .text.FSMC_NANDInit
                0x0000000000000000       0x70 StdPeriph_Driver/src/stm32f10x_fsmc.o
 .text.FSMC_PCCARDInit
                0x0000000000000000       0x68 StdPeriph_Driver/src/stm32f10x_fsmc.o
 .text.FSMC_NORSRAMStructInit
                0x0000000000000000       0x68 StdPeriph_Driver/src/stm32f10x_fsmc.o
 .text.FSMC_NANDStructInit
                0x0000000000000000       0x36 StdPeriph_Driver/src/stm32f10x_fsmc.o
 .text.FSMC_PCCARDStructInit
                0x0000000000000000       0x3c StdPeriph_Driver/src/stm32f10x_fsmc.o
 .text.FSMC_NORSRAMCmd
                0x0000000000000000       0x2c StdPeriph_Driver/src/stm32f10x_fsmc.o
 .text.FSMC_NANDCmd
                0x0000000000000000       0x48 StdPeriph_Driver/src/stm32f10x_fsmc.o
 .text.FSMC_PCCARDCmd
                0x0000000000000000       0x24 StdPeriph_Driver/src/stm32f10x_fsmc.o
 .text.FSMC_NANDECCCmd
                0x0000000000000000       0x48 StdPeriph_Driver/src/stm32f10x_fsmc.o
 .text.FSMC_GetECC
                0x0000000000000000       0x18 StdPeriph_Driver/src/stm32f10x_fsmc.o
 .text.FSMC_ITConfig
                0x0000000000000000       0x64 StdPeriph_Driver/src/stm32f10x_fsmc.o
 .text.FSMC_GetFlagStatus
                0x0000000000000000       0x34 StdPeriph_Driver/src/stm32f10x_fsmc.o
 .text.FSMC_ClearFlag
                0x0000000000000000       0x3c StdPeriph_Driver/src/stm32f10x_fsmc.o
 .text.FSMC_GetITStatus
                0x0000000000000000       0x3c StdPeriph_Driver/src/stm32f10x_fsmc.o
 .text.FSMC_ClearITPendingBit
                0x0000000000000000       0x3c StdPeriph_Driver/src/stm32f10x_fsmc.o
 .debug_info    0x0000000000000000      0x8fc StdPeriph_Driver/src/stm32f10x_fsmc.o
 .debug_abbrev  0x0000000000000000      0x1bb StdPeriph_Driver/src/stm32f10x_fsmc.o
 .debug_loc     0x0000000000000000      0x5db StdPeriph_Driver/src/stm32f10x_fsmc.o
 .debug_aranges
                0x0000000000000000       0xb0 StdPeriph_Driver/src/stm32f10x_fsmc.o
 .debug_ranges  0x0000000000000000       0xa0 StdPeriph_Driver/src/stm32f10x_fsmc.o
 .debug_line    0x0000000000000000      0x4fc StdPeriph_Driver/src/stm32f10x_fsmc.o
 .debug_str     0x0000000000000000      0x7bb StdPeriph_Driver/src/stm32f10x_fsmc.o
 .comment       0x0000000000000000       0x80 StdPeriph_Driver/src/stm32f10x_fsmc.o
 .debug_frame   0x0000000000000000      0x178 StdPeriph_Driver/src/stm32f10x_fsmc.o
 .ARM.attributes
                0x0000000000000000       0x33 StdPeriph_Driver/src/stm32f10x_fsmc.o
 .text          0x0000000000000000        0x0 StdPeriph_Driver/src/stm32f10x_gpio.o
 .data          0x0000000000000000        0x0 StdPeriph_Driver/src/stm32f10x_gpio.o
 .bss           0x0000000000000000        0x0 StdPeriph_Driver/src/stm32f10x_gpio.o
 .text.GPIO_DeInit
                0x0000000000000000       0xcc StdPeriph_Driver/src/stm32f10x_gpio.o
 .text.GPIO_AFIODeInit
                0x0000000000000000       0x14 StdPeriph_Driver/src/stm32f10x_gpio.o
 .text.GPIO_StructInit
                0x0000000000000000       0x10 StdPeriph_Driver/src/stm32f10x_gpio.o
 .text.GPIO_ReadInputDataBit
                0x0000000000000000        0xe StdPeriph_Driver/src/stm32f10x_gpio.o
 .text.GPIO_ReadInputData
                0x0000000000000000        0x6 StdPeriph_Driver/src/stm32f10x_gpio.o
 .text.GPIO_ReadOutputDataBit
                0x0000000000000000        0xe StdPeriph_Driver/src/stm32f10x_gpio.o
 .text.GPIO_ReadOutputData
                0x0000000000000000        0x6 StdPeriph_Driver/src/stm32f10x_gpio.o
 .text.GPIO_Write
                0x0000000000000000        0x4 StdPeriph_Driver/src/stm32f10x_gpio.o
 .text.GPIO_PinLockConfig
                0x0000000000000000       0x10 StdPeriph_Driver/src/stm32f10x_gpio.o
 .text.GPIO_EventOutputConfig
                0x0000000000000000       0x1c StdPeriph_Driver/src/stm32f10x_gpio.o
 .text.GPIO_EventOutputCmd
                0x0000000000000000        0xc StdPeriph_Driver/src/stm32f10x_gpio.o
 .text.GPIO_PinRemapConfig
                0x0000000000000000       0x74 StdPeriph_Driver/src/stm32f10x_gpio.o
 .text.GPIO_ETH_MediaInterfaceConfig
                0x0000000000000000        0xc StdPeriph_Driver/src/stm32f10x_gpio.o
 .text          0x0000000000000000        0x0 StdPeriph_Driver/src/stm32f10x_i2c.o
 .data          0x0000000000000000        0x0 StdPeriph_Driver/src/stm32f10x_i2c.o
 .bss           0x0000000000000000        0x0 StdPeriph_Driver/src/stm32f10x_i2c.o
 .text.I2C_StructInit
                0x0000000000000000       0x1c StdPeriph_Driver/src/stm32f10x_i2c.o
 .text.I2C_DMACmd
                0x0000000000000000       0x1c StdPeriph_Driver/src/stm32f10x_i2c.o
 .text.I2C_DMALastTransferCmd
                0x0000000000000000       0x1c StdPeriph_Driver/src/stm32f10x_i2c.o
 .text.I2C_OwnAddress2Config
                0x0000000000000000       0x12 StdPeriph_Driver/src/stm32f10x_i2c.o
 .text.I2C_DualAddressCmd
                0x0000000000000000       0x1c StdPeriph_Driver/src/stm32f10x_i2c.o
 .text.I2C_GeneralCallCmd
                0x0000000000000000       0x1c StdPeriph_Driver/src/stm32f10x_i2c.o
 .text.I2C_ITConfig
                0x0000000000000000       0x18 StdPeriph_Driver/src/stm32f10x_i2c.o
 .text.I2C_ReadRegister
                0x0000000000000000       0x18 StdPeriph_Driver/src/stm32f10x_i2c.o
 .text.I2C_SoftwareResetCmd
                0x0000000000000000       0x1c StdPeriph_Driver/src/stm32f10x_i2c.o
 .text.I2C_NACKPositionConfig
                0x0000000000000000       0x20 StdPeriph_Driver/src/stm32f10x_i2c.o
 .text.I2C_SMBusAlertConfig
                0x0000000000000000       0x20 StdPeriph_Driver/src/stm32f10x_i2c.o
 .text.I2C_TransmitPEC
                0x0000000000000000       0x1c StdPeriph_Driver/src/stm32f10x_i2c.o
 .text.I2C_PECPositionConfig
                0x0000000000000000       0x20 StdPeriph_Driver/src/stm32f10x_i2c.o
 .text.I2C_CalculatePEC
                0x0000000000000000       0x1c StdPeriph_Driver/src/stm32f10x_i2c.o
 .text.I2C_GetPEC
                0x0000000000000000        0x8 StdPeriph_Driver/src/stm32f10x_i2c.o
 .text.I2C_ARPCmd
                0x0000000000000000       0x1c StdPeriph_Driver/src/stm32f10x_i2c.o
 .text.I2C_StretchClockCmd
                0x0000000000000000       0x1c StdPeriph_Driver/src/stm32f10x_i2c.o
 .text.I2C_FastModeDutyCycleConfig
                0x0000000000000000       0x20 StdPeriph_Driver/src/stm32f10x_i2c.o
 .text.I2C_GetLastEvent
                0x0000000000000000       0x10 StdPeriph_Driver/src/stm32f10x_i2c.o
 .text.I2C_ClearFlag
                0x0000000000000000        0xc StdPeriph_Driver/src/stm32f10x_i2c.o
 .text.I2C_GetITStatus
                0x0000000000000000       0x20 StdPeriph_Driver/src/stm32f10x_i2c.o
 .text.I2C_ClearITPendingBit
                0x0000000000000000        0xc StdPeriph_Driver/src/stm32f10x_i2c.o
 .text          0x0000000000000000        0x0 StdPeriph_Driver/src/stm32f10x_iwdg.o
 .data          0x0000000000000000        0x0 StdPeriph_Driver/src/stm32f10x_iwdg.o
 .bss           0x0000000000000000        0x0 StdPeriph_Driver/src/stm32f10x_iwdg.o
 .text.IWDG_WriteAccessCmd
                0x0000000000000000        0xc StdPeriph_Driver/src/stm32f10x_iwdg.o
 .text.IWDG_SetPrescaler
                0x0000000000000000        0xc StdPeriph_Driver/src/stm32f10x_iwdg.o
 .text.IWDG_SetReload
                0x0000000000000000        0xc StdPeriph_Driver/src/stm32f10x_iwdg.o
 .text.IWDG_ReloadCounter
                0x0000000000000000       0x10 StdPeriph_Driver/src/stm32f10x_iwdg.o
 .text.IWDG_Enable
                0x0000000000000000       0x10 StdPeriph_Driver/src/stm32f10x_iwdg.o
 .text.IWDG_GetFlagStatus
                0x0000000000000000       0x14 StdPeriph_Driver/src/stm32f10x_iwdg.o
 .debug_info    0x0000000000000000      0x202 StdPeriph_Driver/src/stm32f10x_iwdg.o
 .debug_abbrev  0x0000000000000000      0x13d StdPeriph_Driver/src/stm32f10x_iwdg.o
 .debug_loc     0x0000000000000000       0x65 StdPeriph_Driver/src/stm32f10x_iwdg.o
 .debug_aranges
                0x0000000000000000       0x48 StdPeriph_Driver/src/stm32f10x_iwdg.o
 .debug_ranges  0x0000000000000000       0x38 StdPeriph_Driver/src/stm32f10x_iwdg.o
 .debug_line    0x0000000000000000      0x29c StdPeriph_Driver/src/stm32f10x_iwdg.o
 .debug_str     0x0000000000000000      0x29d StdPeriph_Driver/src/stm32f10x_iwdg.o
 .comment       0x0000000000000000       0x80 StdPeriph_Driver/src/stm32f10x_iwdg.o
 .debug_frame   0x0000000000000000       0x70 StdPeriph_Driver/src/stm32f10x_iwdg.o
 .ARM.attributes
                0x0000000000000000       0x33 StdPeriph_Driver/src/stm32f10x_iwdg.o
 .text          0x0000000000000000        0x0 StdPeriph_Driver/src/stm32f10x_pwr.o
 .data          0x0000000000000000        0x0 StdPeriph_Driver/src/stm32f10x_pwr.o
 .bss           0x0000000000000000        0x0 StdPeriph_Driver/src/stm32f10x_pwr.o
 .text.PWR_DeInit
                0x0000000000000000       0x18 StdPeriph_Driver/src/stm32f10x_pwr.o
 .text.PWR_PVDCmd
                0x0000000000000000        0xc StdPeriph_Driver/src/stm32f10x_pwr.o
 .text.PWR_PVDLevelConfig
                0x0000000000000000       0x14 StdPeriph_Driver/src/stm32f10x_pwr.o
 .text.PWR_WakeUpPinCmd
                0x0000000000000000        0xc StdPeriph_Driver/src/stm32f10x_pwr.o
 .text.PWR_EnterSTOPMode
                0x0000000000000000       0x34 StdPeriph_Driver/src/stm32f10x_pwr.o
 .text.PWR_EnterSTANDBYMode
                0x0000000000000000       0x28 StdPeriph_Driver/src/stm32f10x_pwr.o
 .text.PWR_GetFlagStatus
                0x0000000000000000       0x14 StdPeriph_Driver/src/stm32f10x_pwr.o
 .text.PWR_ClearFlag
                0x0000000000000000       0x10 StdPeriph_Driver/src/stm32f10x_pwr.o
 .text          0x0000000000000000        0x0 StdPeriph_Driver/src/stm32f10x_rcc.o
 .bss           0x0000000000000000        0x0 StdPeriph_Driver/src/stm32f10x_rcc.o
 .text.RCC_AdjustHSICalibrationValue
                0x0000000000000000       0x14 StdPeriph_Driver/src/stm32f10x_rcc.o
 .text.RCC_HSICmd
                0x0000000000000000        0xc StdPeriph_Driver/src/stm32f10x_rcc.o
 .text.RCC_ITConfig
                0x0000000000000000       0x1c StdPeriph_Driver/src/stm32f10x_rcc.o
 .text.RCC_USBCLKConfig
                0x0000000000000000        0xc StdPeriph_Driver/src/stm32f10x_rcc.o
 .text.RCC_ADCCLKConfig
                0x0000000000000000       0x14 StdPeriph_Driver/src/stm32f10x_rcc.o
 .text.RCC_LSICmd
                0x0000000000000000        0xc StdPeriph_Driver/src/stm32f10x_rcc.o
 .text.RCC_APB2PeriphResetCmd
                0x0000000000000000       0x1c StdPeriph_Driver/src/stm32f10x_rcc.o
 .text.RCC_ClockSecuritySystemCmd
                0x0000000000000000        0xc StdPeriph_Driver/src/stm32f10x_rcc.o
 .text.RCC_MCOConfig
                0x0000000000000000        0xc StdPeriph_Driver/src/stm32f10x_rcc.o
 .text.RCC_GetITStatus
                0x0000000000000000       0x14 StdPeriph_Driver/src/stm32f10x_rcc.o
 .text.RCC_ClearITPendingBit
                0x0000000000000000        0xc StdPeriph_Driver/src/stm32f10x_rcc.o
 .text          0x0000000000000000        0x0 StdPeriph_Driver/src/stm32f10x_rtc.o
 .data          0x0000000000000000        0x0 StdPeriph_Driver/src/stm32f10x_rtc.o
 .bss           0x0000000000000000        0x0 StdPeriph_Driver/src/stm32f10x_rtc.o
 .text.RTC_GetDivider
                0x0000000000000000       0x18 StdPeriph_Driver/src/stm32f10x_rtc.o
 .text.RTC_GetFlagStatus
                0x0000000000000000       0x14 StdPeriph_Driver/src/stm32f10x_rtc.o
 .text.RTC_ClearFlag
                0x0000000000000000       0x14 StdPeriph_Driver/src/stm32f10x_rtc.o
 .text          0x0000000000000000        0x0 StdPeriph_Driver/src/stm32f10x_sdio.o
 .data          0x0000000000000000        0x0 StdPeriph_Driver/src/stm32f10x_sdio.o
 .bss           0x0000000000000000        0x0 StdPeriph_Driver/src/stm32f10x_sdio.o
 .text.SDIO_DeInit
                0x0000000000000000       0x24 StdPeriph_Driver/src/stm32f10x_sdio.o
 .text.SDIO_Init
                0x0000000000000000       0x30 StdPeriph_Driver/src/stm32f10x_sdio.o
 .text.SDIO_StructInit
                0x0000000000000000       0x10 StdPeriph_Driver/src/stm32f10x_sdio.o
 .text.SDIO_ClockCmd
                0x0000000000000000        0xc StdPeriph_Driver/src/stm32f10x_sdio.o
 .text.SDIO_SetPowerState
                0x0000000000000000       0x18 StdPeriph_Driver/src/stm32f10x_sdio.o
 .text.SDIO_GetPowerState
                0x0000000000000000       0x10 StdPeriph_Driver/src/stm32f10x_sdio.o
 .text.SDIO_ITConfig
                0x0000000000000000       0x1c StdPeriph_Driver/src/stm32f10x_sdio.o
 .text.SDIO_DMACmd
                0x0000000000000000        0xc StdPeriph_Driver/src/stm32f10x_sdio.o
 .text.SDIO_SendCommand
                0x0000000000000000       0x2c StdPeriph_Driver/src/stm32f10x_sdio.o
 .text.SDIO_CmdStructInit
                0x0000000000000000        0xe StdPeriph_Driver/src/stm32f10x_sdio.o
 .text.SDIO_GetCommandResponse
                0x0000000000000000        0xc StdPeriph_Driver/src/stm32f10x_sdio.o
 .text.SDIO_GetResponse
                0x0000000000000000       0x18 StdPeriph_Driver/src/stm32f10x_sdio.o
 .text.SDIO_DataConfig
                0x0000000000000000       0x2c StdPeriph_Driver/src/stm32f10x_sdio.o
 .text.SDIO_DataStructInit
                0x0000000000000000       0x14 StdPeriph_Driver/src/stm32f10x_sdio.o
 .text.SDIO_GetDataCounter
                0x0000000000000000        0xc StdPeriph_Driver/src/stm32f10x_sdio.o
 .text.SDIO_ReadData
                0x0000000000000000        0xc StdPeriph_Driver/src/stm32f10x_sdio.o
 .text.SDIO_WriteData
                0x0000000000000000        0xc StdPeriph_Driver/src/stm32f10x_sdio.o
 .text.SDIO_GetFIFOCount
                0x0000000000000000        0xc StdPeriph_Driver/src/stm32f10x_sdio.o
 .text.SDIO_StartSDIOReadWait
                0x0000000000000000        0xc StdPeriph_Driver/src/stm32f10x_sdio.o
 .text.SDIO_StopSDIOReadWait
                0x0000000000000000        0xc StdPeriph_Driver/src/stm32f10x_sdio.o
 .text.SDIO_SetSDIOReadWaitMode
                0x0000000000000000        0xc StdPeriph_Driver/src/stm32f10x_sdio.o
 .text.SDIO_SetSDIOOperation
                0x0000000000000000        0xc StdPeriph_Driver/src/stm32f10x_sdio.o
 .text.SDIO_SendSDIOSuspendCmd
                0x0000000000000000        0xc StdPeriph_Driver/src/stm32f10x_sdio.o
 .text.SDIO_CommandCompletionCmd
                0x0000000000000000        0xc StdPeriph_Driver/src/stm32f10x_sdio.o
 .text.SDIO_CEATAITCmd
                0x0000000000000000       0x14 StdPeriph_Driver/src/stm32f10x_sdio.o
 .text.SDIO_SendCEATACmd
                0x0000000000000000        0xc StdPeriph_Driver/src/stm32f10x_sdio.o
 .text.SDIO_GetFlagStatus
                0x0000000000000000       0x14 StdPeriph_Driver/src/stm32f10x_sdio.o
 .text.SDIO_ClearFlag
                0x0000000000000000        0xc StdPeriph_Driver/src/stm32f10x_sdio.o
 .text.SDIO_GetITStatus
                0x0000000000000000       0x14 StdPeriph_Driver/src/stm32f10x_sdio.o
 .text.SDIO_ClearITPendingBit
                0x0000000000000000        0xc StdPeriph_Driver/src/stm32f10x_sdio.o
 .debug_info    0x0000000000000000      0x7ea StdPeriph_Driver/src/stm32f10x_sdio.o
 .debug_abbrev  0x0000000000000000      0x1e2 StdPeriph_Driver/src/stm32f10x_sdio.o
 .debug_loc     0x0000000000000000      0x253 StdPeriph_Driver/src/stm32f10x_sdio.o
 .debug_aranges
                0x0000000000000000      0x108 StdPeriph_Driver/src/stm32f10x_sdio.o
 .debug_ranges  0x0000000000000000       0xf8 StdPeriph_Driver/src/stm32f10x_sdio.o
 .debug_line    0x0000000000000000      0x4cd StdPeriph_Driver/src/stm32f10x_sdio.o
 .debug_str     0x0000000000000000      0x671 StdPeriph_Driver/src/stm32f10x_sdio.o
 .comment       0x0000000000000000       0x80 StdPeriph_Driver/src/stm32f10x_sdio.o
 .debug_frame   0x0000000000000000      0x21c StdPeriph_Driver/src/stm32f10x_sdio.o
 .ARM.attributes
                0x0000000000000000       0x33 StdPeriph_Driver/src/stm32f10x_sdio.o
 .text          0x0000000000000000        0x0 StdPeriph_Driver/src/stm32f10x_spi.o
 .data          0x0000000000000000        0x0 StdPeriph_Driver/src/stm32f10x_spi.o
 .bss           0x0000000000000000        0x0 StdPeriph_Driver/src/stm32f10x_spi.o
 .text.SPI_I2S_DeInit
                0x0000000000000000       0x64 StdPeriph_Driver/src/stm32f10x_spi.o
 .text.I2S_Init
                0x0000000000000000       0xb8 StdPeriph_Driver/src/stm32f10x_spi.o
 .text.I2S_StructInit
                0x0000000000000000       0x12 StdPeriph_Driver/src/stm32f10x_spi.o
 .text.I2S_Cmd  0x0000000000000000       0x1c StdPeriph_Driver/src/stm32f10x_spi.o
 .text.SPI_NSSInternalSoftwareConfig
                0x0000000000000000       0x22 StdPeriph_Driver/src/stm32f10x_spi.o
 .text.SPI_SSOutputCmd
                0x0000000000000000       0x1c StdPeriph_Driver/src/stm32f10x_spi.o
 .text.SPI_DataSizeConfig
                0x0000000000000000       0x16 StdPeriph_Driver/src/stm32f10x_spi.o
 .text.SPI_TransmitCRC
                0x0000000000000000        0xc StdPeriph_Driver/src/stm32f10x_spi.o
 .text.SPI_CalculateCRC
                0x0000000000000000       0x1c StdPeriph_Driver/src/stm32f10x_spi.o
 .text.SPI_GetCRC
                0x0000000000000000       0x10 StdPeriph_Driver/src/stm32f10x_spi.o
 .text.SPI_GetCRCPolynomial
                0x0000000000000000        0x6 StdPeriph_Driver/src/stm32f10x_spi.o
 .text.SPI_BiDirectionalLineConfig
                0x0000000000000000       0x20 StdPeriph_Driver/src/stm32f10x_spi.o
 .text.SPI_I2S_ClearFlag
                0x0000000000000000        0x8 StdPeriph_Driver/src/stm32f10x_spi.o
 .text          0x0000000000000000        0x0 StdPeriph_Driver/src/stm32f10x_tim.o
 .data          0x0000000000000000        0x0 StdPeriph_Driver/src/stm32f10x_tim.o
 .bss           0x0000000000000000        0x0 StdPeriph_Driver/src/stm32f10x_tim.o
 .text.TI1_Config
                0x0000000000000000       0x74 StdPeriph_Driver/src/stm32f10x_tim.o
 .text.TI2_Config
                0x0000000000000000       0x7c StdPeriph_Driver/src/stm32f10x_tim.o
 .text.TI3_Config
                0x0000000000000000       0x74 StdPeriph_Driver/src/stm32f10x_tim.o
 .text.TI4_Config
                0x0000000000000000       0x80 StdPeriph_Driver/src/stm32f10x_tim.o
 .text.TIM_DeInit
                0x0000000000000000      0x20c StdPeriph_Driver/src/stm32f10x_tim.o
 .text.TIM_BDTRConfig
                0x0000000000000000       0x26 StdPeriph_Driver/src/stm32f10x_tim.o
 .text.TIM_TimeBaseStructInit
                0x0000000000000000       0x12 StdPeriph_Driver/src/stm32f10x_tim.o
 .text.TIM_OCStructInit
                0x0000000000000000       0x14 StdPeriph_Driver/src/stm32f10x_tim.o
 .text.TIM_ICStructInit
                0x0000000000000000       0x10 StdPeriph_Driver/src/stm32f10x_tim.o
 .text.TIM_BDTRStructInit
                0x0000000000000000       0x12 StdPeriph_Driver/src/stm32f10x_tim.o
 .text.TIM_CtrlPWMOutputs
                0x0000000000000000       0x24 StdPeriph_Driver/src/stm32f10x_tim.o
 .text.TIM_GenerateEvent
                0x0000000000000000        0x4 StdPeriph_Driver/src/stm32f10x_tim.o
 .text.TIM_DMAConfig
                0x0000000000000000        0x8 StdPeriph_Driver/src/stm32f10x_tim.o
 .text.TIM_DMACmd
                0x0000000000000000       0x18 StdPeriph_Driver/src/stm32f10x_tim.o
 .text.TIM_InternalClockConfig
                0x0000000000000000        0xe StdPeriph_Driver/src/stm32f10x_tim.o
 .text.TIM_ETRConfig
                0x0000000000000000       0x16 StdPeriph_Driver/src/stm32f10x_tim.o
 .text.TIM_ETRClockMode1Config
                0x0000000000000000       0x14 StdPeriph_Driver/src/stm32f10x_tim.o
 .text.TIM_ETRClockMode2Config
                0x0000000000000000       0x14 StdPeriph_Driver/src/stm32f10x_tim.o
 .text.TIM_PrescalerConfig
                0x0000000000000000        0x6 StdPeriph_Driver/src/stm32f10x_tim.o
 .text.TIM_CounterModeConfig
                0x0000000000000000        0xe StdPeriph_Driver/src/stm32f10x_tim.o
 .text.TIM_SelectInputTrigger
                0x0000000000000000        0xe StdPeriph_Driver/src/stm32f10x_tim.o
 .text.TIM_ITRxExternalClockConfig
                0x0000000000000000       0x14 StdPeriph_Driver/src/stm32f10x_tim.o
 .text.TIM_TIxExternalClockConfig
                0x0000000000000000       0x2e StdPeriph_Driver/src/stm32f10x_tim.o
 .text.TIM_EncoderInterfaceConfig
                0x0000000000000000       0x3a StdPeriph_Driver/src/stm32f10x_tim.o
 .text.TIM_ForcedOC1Config
                0x0000000000000000        0xe StdPeriph_Driver/src/stm32f10x_tim.o
 .text.TIM_ForcedOC2Config
                0x0000000000000000       0x12 StdPeriph_Driver/src/stm32f10x_tim.o
 .text.TIM_ForcedOC3Config
                0x0000000000000000        0xe StdPeriph_Driver/src/stm32f10x_tim.o
 .text.TIM_ForcedOC4Config
                0x0000000000000000       0x12 StdPeriph_Driver/src/stm32f10x_tim.o
 .text.TIM_ARRPreloadConfig
                0x0000000000000000       0x1c StdPeriph_Driver/src/stm32f10x_tim.o
 .text.TIM_SelectCOM
                0x0000000000000000       0x1c StdPeriph_Driver/src/stm32f10x_tim.o
 .text.TIM_SelectCCDMA
                0x0000000000000000       0x1c StdPeriph_Driver/src/stm32f10x_tim.o
 .text.TIM_CCPreloadControl
                0x0000000000000000       0x1c StdPeriph_Driver/src/stm32f10x_tim.o
 .text.TIM_OC1FastConfig
                0x0000000000000000        0xe StdPeriph_Driver/src/stm32f10x_tim.o
 .text.TIM_OC2FastConfig
                0x0000000000000000       0x12 StdPeriph_Driver/src/stm32f10x_tim.o
 .text.TIM_OC3FastConfig
                0x0000000000000000        0xe StdPeriph_Driver/src/stm32f10x_tim.o
 .text.TIM_OC4FastConfig
                0x0000000000000000       0x12 StdPeriph_Driver/src/stm32f10x_tim.o
 .text.TIM_ClearOC1Ref
                0x0000000000000000        0xe StdPeriph_Driver/src/stm32f10x_tim.o
 .text.TIM_ClearOC2Ref
                0x0000000000000000       0x10 StdPeriph_Driver/src/stm32f10x_tim.o
 .text.TIM_ClearOC3Ref
                0x0000000000000000        0xe StdPeriph_Driver/src/stm32f10x_tim.o
 .text.TIM_ClearOC4Ref
                0x0000000000000000       0x10 StdPeriph_Driver/src/stm32f10x_tim.o
 .text.TIM_OC1PolarityConfig
                0x0000000000000000        0xe StdPeriph_Driver/src/stm32f10x_tim.o
 .text.TIM_OC1NPolarityConfig
                0x0000000000000000        0xe StdPeriph_Driver/src/stm32f10x_tim.o
 .text.TIM_OC2PolarityConfig
                0x0000000000000000       0x12 StdPeriph_Driver/src/stm32f10x_tim.o
 .text.TIM_OC2NPolarityConfig
                0x0000000000000000       0x12 StdPeriph_Driver/src/stm32f10x_tim.o
 .text.TIM_OC3PolarityConfig
                0x0000000000000000       0x12 StdPeriph_Driver/src/stm32f10x_tim.o
 .text.TIM_OC3NPolarityConfig
                0x0000000000000000       0x12 StdPeriph_Driver/src/stm32f10x_tim.o
 .text.TIM_OC4PolarityConfig
                0x0000000000000000       0x12 StdPeriph_Driver/src/stm32f10x_tim.o
 .text.TIM_CCxCmd
                0x0000000000000000       0x22 StdPeriph_Driver/src/stm32f10x_tim.o
 .text.TIM_CCxNCmd
                0x0000000000000000       0x22 StdPeriph_Driver/src/stm32f10x_tim.o
 .text.TIM_SelectOCxM
                0x0000000000000000       0x4a StdPeriph_Driver/src/stm32f10x_tim.o
 .text.TIM_UpdateDisableConfig
                0x0000000000000000       0x1c StdPeriph_Driver/src/stm32f10x_tim.o
 .text.TIM_UpdateRequestConfig
                0x0000000000000000       0x1c StdPeriph_Driver/src/stm32f10x_tim.o
 .text.TIM_SelectHallSensor
                0x0000000000000000       0x1c StdPeriph_Driver/src/stm32f10x_tim.o
 .text.TIM_SelectOnePulseMode
                0x0000000000000000       0x16 StdPeriph_Driver/src/stm32f10x_tim.o
 .text.TIM_SelectOutputTrigger
                0x0000000000000000       0x16 StdPeriph_Driver/src/stm32f10x_tim.o
 .text.TIM_SelectSlaveMode
                0x0000000000000000       0x16 StdPeriph_Driver/src/stm32f10x_tim.o
 .text.TIM_SelectMasterSlaveMode
                0x0000000000000000       0x16 StdPeriph_Driver/src/stm32f10x_tim.o
 .text.TIM_SetCounter
                0x0000000000000000        0x4 StdPeriph_Driver/src/stm32f10x_tim.o
 .text.TIM_SetAutoreload
                0x0000000000000000        0x4 StdPeriph_Driver/src/stm32f10x_tim.o
 .text.TIM_SetIC1Prescaler
                0x0000000000000000       0x16 StdPeriph_Driver/src/stm32f10x_tim.o
 .text.TIM_SetIC2Prescaler
                0x0000000000000000       0x1a StdPeriph_Driver/src/stm32f10x_tim.o
 .text.TIM_PWMIConfig
                0x0000000000000000       0x6c StdPeriph_Driver/src/stm32f10x_tim.o
 .text.TIM_SetIC3Prescaler
                0x0000000000000000       0x16 StdPeriph_Driver/src/stm32f10x_tim.o
 .text.TIM_SetIC4Prescaler
                0x0000000000000000       0x1a StdPeriph_Driver/src/stm32f10x_tim.o
 .text.TIM_ICInit
                0x0000000000000000       0x62 StdPeriph_Driver/src/stm32f10x_tim.o
 .text.TIM_SetClockDivision
                0x0000000000000000       0x16 StdPeriph_Driver/src/stm32f10x_tim.o
 .text.TIM_GetCounter
                0x0000000000000000        0x6 StdPeriph_Driver/src/stm32f10x_tim.o
 .text.TIM_GetPrescaler
                0x0000000000000000        0x6 StdPeriph_Driver/src/stm32f10x_tim.o
 .text.TIM_GetFlagStatus
                0x0000000000000000        0xe StdPeriph_Driver/src/stm32f10x_tim.o
 .text.TIM_ClearFlag
                0x0000000000000000        0x8 StdPeriph_Driver/src/stm32f10x_tim.o
 .text          0x0000000000000000        0x0 StdPeriph_Driver/src/stm32f10x_usart.o
 .data          0x0000000000000000        0x0 StdPeriph_Driver/src/stm32f10x_usart.o
 .bss           0x0000000000000000        0x0 StdPeriph_Driver/src/stm32f10x_usart.o
 .text.USART_DeInit
                0x0000000000000000       0xa4 StdPeriph_Driver/src/stm32f10x_usart.o
 .text.USART_StructInit
                0x0000000000000000       0x16 StdPeriph_Driver/src/stm32f10x_usart.o
 .text.USART_ClockInit
                0x0000000000000000       0x22 StdPeriph_Driver/src/stm32f10x_usart.o
 .text.USART_ClockStructInit
                0x0000000000000000        0xc StdPeriph_Driver/src/stm32f10x_usart.o
 .text.USART_DMACmd
                0x0000000000000000       0x18 StdPeriph_Driver/src/stm32f10x_usart.o
 .text.USART_SetAddress
                0x0000000000000000       0x16 StdPeriph_Driver/src/stm32f10x_usart.o
 .text.USART_WakeUpConfig
                0x0000000000000000       0x16 StdPeriph_Driver/src/stm32f10x_usart.o
 .text.USART_ReceiverWakeUpCmd
                0x0000000000000000       0x1c StdPeriph_Driver/src/stm32f10x_usart.o
 .text.USART_LINBreakDetectLengthConfig
                0x0000000000000000       0x16 StdPeriph_Driver/src/stm32f10x_usart.o
 .text.USART_LINCmd
                0x0000000000000000       0x1c StdPeriph_Driver/src/stm32f10x_usart.o
 .text.USART_SendBreak
                0x0000000000000000        0xc StdPeriph_Driver/src/stm32f10x_usart.o
 .text.USART_SetGuardTime
                0x0000000000000000       0x12 StdPeriph_Driver/src/stm32f10x_usart.o
 .text.USART_SetPrescaler
                0x0000000000000000       0x12 StdPeriph_Driver/src/stm32f10x_usart.o
 .text.USART_SmartCardCmd
                0x0000000000000000       0x1c StdPeriph_Driver/src/stm32f10x_usart.o
 .text.USART_SmartCardNACKCmd
                0x0000000000000000       0x1c StdPeriph_Driver/src/stm32f10x_usart.o
 .text.USART_HalfDuplexCmd
                0x0000000000000000       0x1c StdPeriph_Driver/src/stm32f10x_usart.o
 .text.USART_OverSampling8Cmd
                0x0000000000000000       0x1c StdPeriph_Driver/src/stm32f10x_usart.o
 .text.USART_OneBitMethodCmd
                0x0000000000000000       0x1c StdPeriph_Driver/src/stm32f10x_usart.o
 .text.USART_IrDAConfig
                0x0000000000000000       0x16 StdPeriph_Driver/src/stm32f10x_usart.o
 .text.USART_IrDACmd
                0x0000000000000000       0x1c StdPeriph_Driver/src/stm32f10x_usart.o
 .text.USART_ClearFlag
                0x0000000000000000        0x8 StdPeriph_Driver/src/stm32f10x_usart.o
 .text.USART_GetITStatus
                0x0000000000000000       0x4c StdPeriph_Driver/src/stm32f10x_usart.o
 .text.USART_ClearITPendingBit
                0x0000000000000000       0x10 StdPeriph_Driver/src/stm32f10x_usart.o
 .text          0x0000000000000000        0x0 StdPeriph_Driver/src/stm32f10x_wwdg.o
 .data          0x0000000000000000        0x0 StdPeriph_Driver/src/stm32f10x_wwdg.o
 .bss           0x0000000000000000        0x0 StdPeriph_Driver/src/stm32f10x_wwdg.o
 .text.WWDG_DeInit
                0x0000000000000000       0x18 StdPeriph_Driver/src/stm32f10x_wwdg.o
 .text.WWDG_SetPrescaler
                0x0000000000000000       0x14 StdPeriph_Driver/src/stm32f10x_wwdg.o
 .text.WWDG_SetWindowValue
                0x0000000000000000       0x28 StdPeriph_Driver/src/stm32f10x_wwdg.o
 .text.WWDG_EnableIT
                0x0000000000000000        0xc StdPeriph_Driver/src/stm32f10x_wwdg.o
 .text.WWDG_SetCounter
                0x0000000000000000       0x10 StdPeriph_Driver/src/stm32f10x_wwdg.o
 .text.WWDG_Enable
                0x0000000000000000       0x10 StdPeriph_Driver/src/stm32f10x_wwdg.o
 .text.WWDG_GetFlagStatus
                0x0000000000000000        0xc StdPeriph_Driver/src/stm32f10x_wwdg.o
 .text.WWDG_ClearFlag
                0x0000000000000000        0xc StdPeriph_Driver/src/stm32f10x_wwdg.o
 .debug_info    0x0000000000000000      0x275 StdPeriph_Driver/src/stm32f10x_wwdg.o
 .debug_abbrev  0x0000000000000000      0x158 StdPeriph_Driver/src/stm32f10x_wwdg.o
 .debug_loc     0x0000000000000000       0xae StdPeriph_Driver/src/stm32f10x_wwdg.o
 .debug_aranges
                0x0000000000000000       0x58 StdPeriph_Driver/src/stm32f10x_wwdg.o
 .debug_ranges  0x0000000000000000       0x48 StdPeriph_Driver/src/stm32f10x_wwdg.o
 .debug_line    0x0000000000000000      0x313 StdPeriph_Driver/src/stm32f10x_wwdg.o
 .debug_str     0x0000000000000000      0x2b5 StdPeriph_Driver/src/stm32f10x_wwdg.o
 .comment       0x0000000000000000       0x80 StdPeriph_Driver/src/stm32f10x_wwdg.o
 .debug_frame   0x0000000000000000       0xa0 StdPeriph_Driver/src/stm32f10x_wwdg.o
 .ARM.attributes
                0x0000000000000000       0x33 StdPeriph_Driver/src/stm32f10x_wwdg.o
 .text          0x0000000000000000        0x0 lib/ILI9341/core.o
 .bss           0x0000000000000000        0x0 lib/ILI9341/core.o
 .text          0x0000000000000000        0x0 lib/ILI9341/delay.o
 .data          0x0000000000000000        0x0 lib/ILI9341/delay.o
 .text.delay_us
                0x0000000000000000       0x58 lib/ILI9341/delay.o
 .text          0x0000000000000000        0x0 lib/ILI9341/dma.o
 .data          0x0000000000000000        0x0 lib/ILI9341/dma.o
 .bss           0x0000000000000000        0x2 lib/ILI9341/dma.o
 .text.dmaSendData8
                0x0000000000000000       0x7c lib/ILI9341/dma.o
 .text.dmaSendDataBuf16
                0x0000000000000000       0x84 lib/ILI9341/dma.o
 .text.dmaSendDataContBuf16
                0x0000000000000000       0xc0 lib/ILI9341/dma.o
 .text          0x0000000000000000        0x0 lib/ILI9341/graph.o
 .data          0x0000000000000000        0x0 lib/ILI9341/graph.o
 .bss           0x0000000000000000        0x0 lib/ILI9341/graph.o
 .text.LCD_drawFastHLine
                0x0000000000000000       0x50 lib/ILI9341/graph.o
 .text.LCD_putPixel
                0x0000000000000000       0x24 lib/ILI9341/graph.o
 .text.LCD_drawFastVLine
                0x0000000000000000       0x50 lib/ILI9341/graph.o
 .text.LCD_drawCircle
                0x0000000000000000      0x222 lib/ILI9341/graph.o
 .text.LCD_fillCircleHelper
                0x0000000000000000      0x240 lib/ILI9341/graph.o
 .text.LCD_fillCircle
                0x0000000000000000       0x7c lib/ILI9341/graph.o
 .text.LCD_drawLine
                0x0000000000000000      0x13a lib/ILI9341/graph.o
 .text.LCD_setVerticalScrolling
                0x0000000000000000       0x38 lib/ILI9341/graph.o
 .text.LCD_scroll
                0x0000000000000000       0x24 lib/ILI9341/graph.o
 .text          0x0000000000000000        0x0 lib/ILI9341/text.o
 .text.LCD_write
                0x0000000000000000      0x218 lib/ILI9341/text.o
 .text.LCD_getCursorX
                0x0000000000000000        0xc lib/ILI9341/text.o
 .text.LCD_getCursorY
                0x0000000000000000        0xc lib/ILI9341/text.o
 .text          0x0000000000000000        0x0 lib/tinystd/itoa.o
 .data          0x0000000000000000        0x0 lib/tinystd/itoa.o
 .bss           0x0000000000000000        0x0 lib/tinystd/itoa.o
 .text.itoa     0x0000000000000000       0x70 lib/tinystd/itoa.o
 .debug_info    0x0000000000000000       0xf0 lib/tinystd/itoa.o
 .debug_abbrev  0x0000000000000000       0xbb lib/tinystd/itoa.o
 .debug_loc     0x0000000000000000      0x164 lib/tinystd/itoa.o
 .debug_aranges
                0x0000000000000000       0x20 lib/tinystd/itoa.o
 .debug_ranges  0x0000000000000000       0x10 lib/tinystd/itoa.o
 .debug_line    0x0000000000000000       0x82 lib/tinystd/itoa.o
 .debug_str     0x0000000000000000      0x11c lib/tinystd/itoa.o
 .comment       0x0000000000000000       0x80 lib/tinystd/itoa.o
 .debug_frame   0x0000000000000000       0x38 lib/tinystd/itoa.o
 .ARM.attributes
                0x0000000000000000       0x33 lib/tinystd/itoa.o
 .text          0x0000000000000000        0x0 src/DFPPlayer.o
 .text.MP3_say  0x0000000000000000      0x120 src/DFPPlayer.o
 .rodata        0x0000000000000000       0x10 src/DFPPlayer.o
 .text          0x0000000000000000        0x0 src/bmp180.o
 .data          0x0000000000000000        0x0 src/bmp180.o
 .bss           0x0000000000000000        0x0 src/bmp180.o
 .text.BMP180_Reset
                0x0000000000000000        0xc src/bmp180.o
 .text.BMP180_kpa_to_mmhg
                0x0000000000000000       0x1c src/bmp180.o
 .text          0x0000000000000000        0x0 src/buffors.o
 .data          0x0000000000000000        0x0 src/buffors.o
 .bss           0x0000000000000000        0x0 src/buffors.o
 .text.addToBuffor
                0x0000000000000000       0x18 src/buffors.o
 .text.getFromBuffor
                0x0000000000000000       0x36 src/buffors.o
 .text.getBufforSize
                0x0000000000000000        0x6 src/buffors.o
 .text.isBufforEmpty
                0x0000000000000000        0xe src/buffors.o
 .text.clearBuffor
                0x0000000000000000        0xe src/buffors.o
 .text.initBuffor
                0x0000000000000000        0xe src/buffors.o
 .debug_info    0x0000000000000000      0x1d5 src/buffors.o
 .debug_abbrev  0x0000000000000000       0xf4 src/buffors.o
 .debug_loc     0x0000000000000000      0x123 src/buffors.o
 .debug_aranges
                0x0000000000000000       0x48 src/buffors.o
 .debug_ranges  0x0000000000000000       0x38 src/buffors.o
 .debug_line    0x0000000000000000       0xde src/buffors.o
 .debug_str     0x0000000000000000      0x1d4 src/buffors.o
 .comment       0x0000000000000000       0x80 src/buffors.o
 .debug_frame   0x0000000000000000       0x70 src/buffors.o
 .ARM.attributes
                0x0000000000000000       0x33 src/buffors.o
 .text          0x0000000000000000        0x0 src/device_config.o
 .data          0x0000000000000000        0x0 src/device_config.o
 .bss           0x0000000000000000        0x1 src/device_config.o
 .text.set_sleep_mode
                0x0000000000000000       0x18 src/device_config.o
 .text.clr_sleep_mode
                0x0000000000000000       0x18 src/device_config.o
 .text.init_nvic
                0x0000000000000000        0x2 src/device_config.o
 .text          0x0000000000000000        0x0 src/main.o
 .data          0x0000000000000000        0x0 src/main.o
 .bss           0x0000000000000000        0x1 src/main.o
 .text.AddCRC   0x0000000000000000       0x26 src/main.o
 COMMON         0x0000000000000000       0x18 src/main.o
 .text          0x0000000000000000        0x0 src/menu.o
 .text.on_set_saver
                0x0000000000000000       0x1c src/menu.o
 .text.create_firts_submenu
                0x0000000000000000        0x2 src/menu.o
 .text          0x0000000000000000        0x0 src/rtc.o
 .data          0x0000000000000000        0x0 src/rtc.o
 .text.getAlarmState
                0x0000000000000000        0xc src/rtc.o
 .text.getTotalRtcTicks
                0x0000000000000000        0xc src/rtc.o
 .text          0x0000000000000000        0x0 src/scan_timer.o
 .text.init_signle_shot_timer
                0x0000000000000000        0x2 src/scan_timer.o
 .text          0x0000000000000000        0x0 src/system_stm32f10x.o
 .bss           0x0000000000000000        0x0 src/system_stm32f10x.o
 .text.SystemCoreClockUpdate
                0x0000000000000000       0x90 src/system_stm32f10x.o
 .text          0x0000000000000000        0x0 src/timers.o
 .text.timer_2_init
                0x0000000000000000      0x108 src/timers.o
 COMMON         0x0000000000000000       0x1c src/timers.o
 .text          0x0000000000000000        0x0 src/touch_screen.o
 .text.touch_screen_receive_dma_data_set
                0x0000000000000000       0x64 src/touch_screen.o
 .text.send_to_touch_screen
                0x0000000000000000        0x2 src/touch_screen.o
 .text.getTouchData
                0x0000000000000000       0x2c src/touch_screen.o
 .text.init_spi_2_dma
                0x0000000000000000       0xb4 src/touch_screen.o
 .text.touch_screen_transmit_dma_data_set
                0x0000000000000000       0xbc src/touch_screen.o
 .rodata.str1.4
                0x0000000000000000       0x11 src/touch_screen.o
 .text          0x0000000000000000        0x0 src/uart_interrupt.o
 .data          0x0000000000000000        0x0 src/uart_interrupt.o
 .bss           0x0000000000000000        0x2 src/uart_interrupt.o
 .text.RCC_Configuration
                0x0000000000000000       0x16 src/uart_interrupt.o
 .text.GPIO_Configuration
                0x0000000000000000       0x44 src/uart_interrupt.o
 .text.NVIC_Configuration
                0x0000000000000000       0x2a src/uart_interrupt.o
 .text.uart_interrup_init
                0x0000000000000000       0x6c src/uart_interrupt.o
 .text.uart_send_data
                0x0000000000000000       0x34 src/uart_interrupt.o
 .text.init_uart2_polling
                0x0000000000000000       0x88 src/uart_interrupt.o
 .text.uart2_send_char
                0x0000000000000000       0x20 src/uart_interrupt.o
 .text.analizeIncomingData
                0x0000000000000000       0x38 src/uart_interrupt.o
 .debug_info    0x0000000000000000     0x12be src/uart_interrupt.o
 .debug_abbrev  0x0000000000000000      0x2c8 src/uart_interrupt.o
 .debug_loc     0x0000000000000000       0x8c src/uart_interrupt.o
 .debug_aranges
                0x0000000000000000       0x58 src/uart_interrupt.o
 .debug_ranges  0x0000000000000000       0x48 src/uart_interrupt.o
 .debug_line    0x0000000000000000      0x4a1 src/uart_interrupt.o
 .debug_str     0x0000000000000000      0xd94 src/uart_interrupt.o
 .comment       0x0000000000000000       0x80 src/uart_interrupt.o
 .debug_frame   0x0000000000000000      0x104 src/uart_interrupt.o
 .ARM.attributes
                0x0000000000000000       0x33 src/uart_interrupt.o
 COMMON         0x0000000000000000      0x16b src/uart_interrupt.o
 .text          0x0000000000000000        0x0 src/usart_dma.o
 .data          0x0000000000000000        0x0 src/usart_dma.o
 .bss           0x0000000000000000        0x0 src/usart_dma.o
 .text.ini      0x0000000000000000        0x2 src/usart_dma.o
 .text.GPIO_DMA_Configuration
                0x0000000000000000       0x44 src/usart_dma.o
 .text.RCC_DMA_Configuration
                0x0000000000000000       0x1e src/usart_dma.o
 .text.DMA_Configuration
                0x0000000000000000       0x74 src/usart_dma.o
 .text.usart_dma_init
                0x0000000000000000       0x74 src/usart_dma.o
 .text.analizeIncomingDMAData
                0x0000000000000000       0x38 src/usart_dma.o
 .text.uart_dma_send_data
                0x0000000000000000       0x20 src/usart_dma.o
 .text.reconfigure_dma_to_reception
                0x0000000000000000       0x4c src/usart_dma.o
 .text.reconfigure_dma_to_transmision
                0x0000000000000000       0x44 src/usart_dma.o
 .text.controlUartTransfer
                0x0000000000000000       0x60 src/usart_dma.o
 .text.NVIC_DMA_Configuration
                0x0000000000000000        0x2 src/usart_dma.o
 .debug_info    0x0000000000000000     0x12f4 src/usart_dma.o
 .debug_abbrev  0x0000000000000000      0x2f8 src/usart_dma.o
 .debug_loc     0x0000000000000000       0xdc src/usart_dma.o
 .debug_aranges
                0x0000000000000000       0x70 src/usart_dma.o
 .debug_ranges  0x0000000000000000       0x60 src/usart_dma.o
 .debug_line    0x0000000000000000      0x4ea src/usart_dma.o
 .debug_str     0x0000000000000000      0xb76 src/usart_dma.o
 .comment       0x0000000000000000       0x80 src/usart_dma.o
 .debug_frame   0x0000000000000000      0x12c src/usart_dma.o
 .ARM.attributes
                0x0000000000000000       0x33 src/usart_dma.o
 COMMON         0x0000000000000000       0x80 src/usart_dma.o
 .text          0x0000000000000000       0x14 startup/startup_stm32.o
 .data          0x0000000000000000        0x0 startup/startup_stm32.o
 .bss           0x0000000000000000        0x0 startup/startup_stm32.o
 .text          0x0000000000000000        0x0 /home/gwarchol/Ac6/SystemWorkbench/plugins/fr.ac6.mcu.externaltools.arm-none.linux64_1.15.0.201708311556/tools/compiler/bin/../lib/gcc/arm-none-eabi/6.3.1/../../../../arm-none-eabi/lib/thumb/v7-m/libc_nano.a(lib_a-errno.o)
 .data          0x0000000000000000        0x0 /home/gwarchol/Ac6/SystemWorkbench/plugins/fr.ac6.mcu.externaltools.arm-none.linux64_1.15.0.201708311556/tools/compiler/bin/../lib/gcc/arm-none-eabi/6.3.1/../../../../arm-none-eabi/lib/thumb/v7-m/libc_nano.a(lib_a-errno.o)
 .bss           0x0000000000000000        0x0 /home/gwarchol/Ac6/SystemWorkbench/plugins/fr.ac6.mcu.externaltools.arm-none.linux64_1.15.0.201708311556/tools/compiler/bin/../lib/gcc/arm-none-eabi/6.3.1/../../../../arm-none-eabi/lib/thumb/v7-m/libc_nano.a(lib_a-errno.o)
 .text          0x0000000000000000        0x0 /home/gwarchol/Ac6/SystemWorkbench/plugins/fr.ac6.mcu.externaltools.arm-none.linux64_1.15.0.201708311556/tools/compiler/bin/../lib/gcc/arm-none-eabi/6.3.1/../../../../arm-none-eabi/lib/thumb/v7-m/libc_nano.a(lib_a-findfp.o)
 .data          0x0000000000000000        0x0 /home/gwarchol/Ac6/SystemWorkbench/plugins/fr.ac6.mcu.externaltools.arm-none.linux64_1.15.0.201708311556/tools/compiler/bin/../lib/gcc/arm-none-eabi/6.3.1/../../../../arm-none-eabi/lib/thumb/v7-m/libc_nano.a(lib_a-findfp.o)
 .bss           0x0000000000000000        0x0 /home/gwarchol/Ac6/SystemWorkbench/plugins/fr.ac6.mcu.externaltools.arm-none.linux64_1.15.0.201708311556/tools/compiler/bin/../lib/gcc/arm-none-eabi/6.3.1/../../../../arm-none-eabi/lib/thumb/v7-m/libc_nano.a(lib_a-findfp.o)
 .text.__fp_unlock
                0x0000000000000000        0x4 /home/gwarchol/Ac6/SystemWorkbench/plugins/fr.ac6.mcu.externaltools.arm-none.linux64_1.15.0.201708311556/tools/compiler/bin/../lib/gcc/arm-none-eabi/6.3.1/../../../../arm-none-eabi/lib/thumb/v7-m/libc_nano.a(lib_a-findfp.o)
 .text.__fp_lock
                0x0000000000000000        0x4 /home/gwarchol/Ac6/SystemWorkbench/plugins/fr.ac6.mcu.externaltools.arm-none.linux64_1.15.0.201708311556/tools/compiler/bin/../lib/gcc/arm-none-eabi/6.3.1/../../../../arm-none-eabi/lib/thumb/v7-m/libc_nano.a(lib_a-findfp.o)
 .text._cleanup
                0x0000000000000000        0xc /home/gwarchol/Ac6/SystemWorkbench/plugins/fr.ac6.mcu.externaltools.arm-none.linux64_1.15.0.201708311556/tools/compiler/bin/../lib/gcc/arm-none-eabi/6.3.1/../../../../arm-none-eabi/lib/thumb/v7-m/libc_nano.a(lib_a-findfp.o)
 .text.__sfp_lock_acquire
                0x0000000000000000        0x2 /home/gwarchol/Ac6/SystemWorkbench/plugins/fr.ac6.mcu.externaltools.arm-none.linux64_1.15.0.201708311556/tools/compiler/bin/../lib/gcc/arm-none-eabi/6.3.1/../../../../arm-none-eabi/lib/thumb/v7-m/libc_nano.a(lib_a-findfp.o)
 .text.__sfp_lock_release
                0x0000000000000000        0x2 /home/gwarchol/Ac6/SystemWorkbench/plugins/fr.ac6.mcu.externaltools.arm-none.linux64_1.15.0.201708311556/tools/compiler/bin/../lib/gcc/arm-none-eabi/6.3.1/../../../../arm-none-eabi/lib/thumb/v7-m/libc_nano.a(lib_a-findfp.o)
 .text.__sinit_lock_acquire
                0x0000000000000000        0x2 /home/gwarchol/Ac6/SystemWorkbench/plugins/fr.ac6.mcu.externaltools.arm-none.linux64_1.15.0.201708311556/tools/compiler/bin/../lib/gcc/arm-none-eabi/6.3.1/../../../../arm-none-eabi/lib/thumb/v7-m/libc_nano.a(lib_a-findfp.o)
 .text.__sinit_lock_release
                0x0000000000000000        0x2 /home/gwarchol/Ac6/SystemWorkbench/plugins/fr.ac6.mcu.externaltools.arm-none.linux64_1.15.0.201708311556/tools/compiler/bin/../lib/gcc/arm-none-eabi/6.3.1/../../../../arm-none-eabi/lib/thumb/v7-m/libc_nano.a(lib_a-findfp.o)
 .text.__fp_lock_all
                0x0000000000000000       0x14 /home/gwarchol/Ac6/SystemWorkbench/plugins/fr.ac6.mcu.externaltools.arm-none.linux64_1.15.0.201708311556/tools/compiler/bin/../lib/gcc/arm-none-eabi/6.3.1/../../../../arm-none-eabi/lib/thumb/v7-m/libc_nano.a(lib_a-findfp.o)
 .text.__fp_unlock_all
                0x0000000000000000       0x14 /home/gwarchol/Ac6/SystemWorkbench/plugins/fr.ac6.mcu.externaltools.arm-none.linux64_1.15.0.201708311556/tools/compiler/bin/../lib/gcc/arm-none-eabi/6.3.1/../../../../arm-none-eabi/lib/thumb/v7-m/libc_nano.a(lib_a-findfp.o)
 .text          0x0000000000000000        0x0 /home/gwarchol/Ac6/SystemWorkbench/plugins/fr.ac6.mcu.externaltools.arm-none.linux64_1.15.0.201708311556/tools/compiler/bin/../lib/gcc/arm-none-eabi/6.3.1/../../../../arm-none-eabi/lib/thumb/v7-m/libc_nano.a(lib_a-fwalk.o)
 .data          0x0000000000000000        0x0 /home/gwarchol/Ac6/SystemWorkbench/plugins/fr.ac6.mcu.externaltools.arm-none.linux64_1.15.0.201708311556/tools/compiler/bin/../lib/gcc/arm-none-eabi/6.3.1/../../../../arm-none-eabi/lib/thumb/v7-m/libc_nano.a(lib_a-fwalk.o)
 .bss           0x0000000000000000        0x0 /home/gwarchol/Ac6/SystemWorkbench/plugins/fr.ac6.mcu.externaltools.arm-none.linux64_1.15.0.201708311556/tools/compiler/bin/../lib/gcc/arm-none-eabi/6.3.1/../../../../arm-none-eabi/lib/thumb/v7-m/libc_nano.a(lib_a-fwalk.o)
 .text._fwalk   0x0000000000000000       0x38 /home/gwarchol/Ac6/SystemWorkbench/plugins/fr.ac6.mcu.externaltools.arm-none.linux64_1.15.0.201708311556/tools/compiler/bin/../lib/gcc/arm-none-eabi/6.3.1/../../../../arm-none-eabi/lib/thumb/v7-m/libc_nano.a(lib_a-fwalk.o)
 .text          0x0000000000000000        0x0 /home/gwarchol/Ac6/SystemWorkbench/plugins/fr.ac6.mcu.externaltools.arm-none.linux64_1.15.0.201708311556/tools/compiler/bin/../lib/gcc/arm-none-eabi/6.3.1/../../../../arm-none-eabi/lib/thumb/v7-m/libc_nano.a(lib_a-nano-mallocr.o)
 .data          0x0000000000000000        0x0 /home/gwarchol/Ac6/SystemWorkbench/plugins/fr.ac6.mcu.externaltools.arm-none.linux64_1.15.0.201708311556/tools/compiler/bin/../lib/gcc/arm-none-eabi/6.3.1/../../../../arm-none-eabi/lib/thumb/v7-m/libc_nano.a(lib_a-nano-mallocr.o)
 .bss           0x0000000000000000        0x0 /home/gwarchol/Ac6/SystemWorkbench/plugins/fr.ac6.mcu.externaltools.arm-none.linux64_1.15.0.201708311556/tools/compiler/bin/../lib/gcc/arm-none-eabi/6.3.1/../../../../arm-none-eabi/lib/thumb/v7-m/libc_nano.a(lib_a-nano-mallocr.o)
 .text          0x0000000000000000        0x0 /home/gwarchol/Ac6/SystemWorkbench/plugins/fr.ac6.mcu.externaltools.arm-none.linux64_1.15.0.201708311556/tools/compiler/bin/../lib/gcc/arm-none-eabi/6.3.1/../../../../arm-none-eabi/lib/thumb/v7-m/libc_nano.a(lib_a-printf.o)
 .data          0x0000000000000000        0x0 /home/gwarchol/Ac6/SystemWorkbench/plugins/fr.ac6.mcu.externaltools.arm-none.linux64_1.15.0.201708311556/tools/compiler/bin/../lib/gcc/arm-none-eabi/6.3.1/../../../../arm-none-eabi/lib/thumb/v7-m/libc_nano.a(lib_a-printf.o)
 .bss           0x0000000000000000        0x0 /home/gwarchol/Ac6/SystemWorkbench/plugins/fr.ac6.mcu.externaltools.arm-none.linux64_1.15.0.201708311556/tools/compiler/bin/../lib/gcc/arm-none-eabi/6.3.1/../../../../arm-none-eabi/lib/thumb/v7-m/libc_nano.a(lib_a-printf.o)
 .text._printf_r
                0x0000000000000000       0x28 /home/gwarchol/Ac6/SystemWorkbench/plugins/fr.ac6.mcu.externaltools.arm-none.linux64_1.15.0.201708311556/tools/compiler/bin/../lib/gcc/arm-none-eabi/6.3.1/../../../../arm-none-eabi/lib/thumb/v7-m/libc_nano.a(lib_a-printf.o)
 .text          0x0000000000000000        0x0 /home/gwarchol/Ac6/SystemWorkbench/plugins/fr.ac6.mcu.externaltools.arm-none.linux64_1.15.0.201708311556/tools/compiler/bin/../lib/gcc/arm-none-eabi/6.3.1/../../../../arm-none-eabi/lib/thumb/v7-m/libc_nano.a(lib_a-putchar.o)
 .data          0x0000000000000000        0x0 /home/gwarchol/Ac6/SystemWorkbench/plugins/fr.ac6.mcu.externaltools.arm-none.linux64_1.15.0.201708311556/tools/compiler/bin/../lib/gcc/arm-none-eabi/6.3.1/../../../../arm-none-eabi/lib/thumb/v7-m/libc_nano.a(lib_a-putchar.o)
 .bss           0x0000000000000000        0x0 /home/gwarchol/Ac6/SystemWorkbench/plugins/fr.ac6.mcu.externaltools.arm-none.linux64_1.15.0.201708311556/tools/compiler/bin/../lib/gcc/arm-none-eabi/6.3.1/../../../../arm-none-eabi/lib/thumb/v7-m/libc_nano.a(lib_a-putchar.o)
 .text._putchar_r
                0x0000000000000000       0x1e /home/gwarchol/Ac6/SystemWorkbench/plugins/fr.ac6.mcu.externaltools.arm-none.linux64_1.15.0.201708311556/tools/compiler/bin/../lib/gcc/arm-none-eabi/6.3.1/../../../../arm-none-eabi/lib/thumb/v7-m/libc_nano.a(lib_a-putchar.o)
 .text          0x0000000000000000        0x0 /home/gwarchol/Ac6/SystemWorkbench/plugins/fr.ac6.mcu.externaltools.arm-none.linux64_1.15.0.201708311556/tools/compiler/bin/../lib/gcc/arm-none-eabi/6.3.1/../../../../arm-none-eabi/lib/thumb/v7-m/libc_nano.a(lib_a-puts.o)
 .data          0x0000000000000000        0x0 /home/gwarchol/Ac6/SystemWorkbench/plugins/fr.ac6.mcu.externaltools.arm-none.linux64_1.15.0.201708311556/tools/compiler/bin/../lib/gcc/arm-none-eabi/6.3.1/../../../../arm-none-eabi/lib/thumb/v7-m/libc_nano.a(lib_a-puts.o)
 .bss           0x0000000000000000        0x0 /home/gwarchol/Ac6/SystemWorkbench/plugins/fr.ac6.mcu.externaltools.arm-none.linux64_1.15.0.201708311556/tools/compiler/bin/../lib/gcc/arm-none-eabi/6.3.1/../../../../arm-none-eabi/lib/thumb/v7-m/libc_nano.a(lib_a-puts.o)
 .text          0x0000000000000000        0x0 /home/gwarchol/Ac6/SystemWorkbench/plugins/fr.ac6.mcu.externaltools.arm-none.linux64_1.15.0.201708311556/tools/compiler/bin/../lib/gcc/arm-none-eabi/6.3.1/../../../../arm-none-eabi/lib/thumb/v7-m/libc_nano.a(lib_a-sbrkr.o)
 .data          0x0000000000000000        0x0 /home/gwarchol/Ac6/SystemWorkbench/plugins/fr.ac6.mcu.externaltools.arm-none.linux64_1.15.0.201708311556/tools/compiler/bin/../lib/gcc/arm-none-eabi/6.3.1/../../../../arm-none-eabi/lib/thumb/v7-m/libc_nano.a(lib_a-sbrkr.o)
 .bss           0x0000000000000000        0x0 /home/gwarchol/Ac6/SystemWorkbench/plugins/fr.ac6.mcu.externaltools.arm-none.linux64_1.15.0.201708311556/tools/compiler/bin/../lib/gcc/arm-none-eabi/6.3.1/../../../../arm-none-eabi/lib/thumb/v7-m/libc_nano.a(lib_a-sbrkr.o)
 .text          0x0000000000000000        0x0 /home/gwarchol/Ac6/SystemWorkbench/plugins/fr.ac6.mcu.externaltools.arm-none.linux64_1.15.0.201708311556/tools/compiler/bin/../lib/gcc/arm-none-eabi/6.3.1/../../../../arm-none-eabi/lib/thumb/v7-m/libc_nano.a(lib_a-sprintf.o)
 .data          0x0000000000000000        0x0 /home/gwarchol/Ac6/SystemWorkbench/plugins/fr.ac6.mcu.externaltools.arm-none.linux64_1.15.0.201708311556/tools/compiler/bin/../lib/gcc/arm-none-eabi/6.3.1/../../../../arm-none-eabi/lib/thumb/v7-m/libc_nano.a(lib_a-sprintf.o)
 .bss           0x0000000000000000        0x0 /home/gwarchol/Ac6/SystemWorkbench/plugins/fr.ac6.mcu.externaltools.arm-none.linux64_1.15.0.201708311556/tools/compiler/bin/../lib/gcc/arm-none-eabi/6.3.1/../../../../arm-none-eabi/lib/thumb/v7-m/libc_nano.a(lib_a-sprintf.o)
 .text._sprintf_r
                0x0000000000000000       0x40 /home/gwarchol/Ac6/SystemWorkbench/plugins/fr.ac6.mcu.externaltools.arm-none.linux64_1.15.0.201708311556/tools/compiler/bin/../lib/gcc/arm-none-eabi/6.3.1/../../../../arm-none-eabi/lib/thumb/v7-m/libc_nano.a(lib_a-sprintf.o)
 .text          0x0000000000000000        0x0 /home/gwarchol/Ac6/SystemWorkbench/plugins/fr.ac6.mcu.externaltools.arm-none.linux64_1.15.0.201708311556/tools/compiler/bin/../lib/gcc/arm-none-eabi/6.3.1/../../../../arm-none-eabi/lib/thumb/v7-m/libc_nano.a(lib_a-stdio.o)
 .data          0x0000000000000000        0x0 /home/gwarchol/Ac6/SystemWorkbench/plugins/fr.ac6.mcu.externaltools.arm-none.linux64_1.15.0.201708311556/tools/compiler/bin/../lib/gcc/arm-none-eabi/6.3.1/../../../../arm-none-eabi/lib/thumb/v7-m/libc_nano.a(lib_a-stdio.o)
 .bss           0x0000000000000000        0x0 /home/gwarchol/Ac6/SystemWorkbench/plugins/fr.ac6.mcu.externaltools.arm-none.linux64_1.15.0.201708311556/tools/compiler/bin/../lib/gcc/arm-none-eabi/6.3.1/../../../../arm-none-eabi/lib/thumb/v7-m/libc_nano.a(lib_a-stdio.o)
 .text.__seofread
                0x0000000000000000        0x4 /home/gwarchol/Ac6/SystemWorkbench/plugins/fr.ac6.mcu.externaltools.arm-none.linux64_1.15.0.201708311556/tools/compiler/bin/../lib/gcc/arm-none-eabi/6.3.1/../../../../arm-none-eabi/lib/thumb/v7-m/libc_nano.a(lib_a-stdio.o)
 .text          0x0000000000000000       0x10 /home/gwarchol/Ac6/SystemWorkbench/plugins/fr.ac6.mcu.externaltools.arm-none.linux64_1.15.0.201708311556/tools/compiler/bin/../lib/gcc/arm-none-eabi/6.3.1/../../../../arm-none-eabi/lib/thumb/v7-m/libc_nano.a(lib_a-strlen.o)
 .data          0x0000000000000000        0x0 /home/gwarchol/Ac6/SystemWorkbench/plugins/fr.ac6.mcu.externaltools.arm-none.linux64_1.15.0.201708311556/tools/compiler/bin/../lib/gcc/arm-none-eabi/6.3.1/../../../../arm-none-eabi/lib/thumb/v7-m/libc_nano.a(lib_a-strlen.o)
 .bss           0x0000000000000000        0x0 /home/gwarchol/Ac6/SystemWorkbench/plugins/fr.ac6.mcu.externaltools.arm-none.linux64_1.15.0.201708311556/tools/compiler/bin/../lib/gcc/arm-none-eabi/6.3.1/../../../../arm-none-eabi/lib/thumb/v7-m/libc_nano.a(lib_a-strlen.o)
 .ARM.attributes
                0x0000000000000000       0x17 /home/gwarchol/Ac6/SystemWorkbench/plugins/fr.ac6.mcu.externaltools.arm-none.linux64_1.15.0.201708311556/tools/compiler/bin/../lib/gcc/arm-none-eabi/6.3.1/../../../../arm-none-eabi/lib/thumb/v7-m/libc_nano.a(lib_a-strlen.o)
 .text          0x0000000000000000        0x0 /home/gwarchol/Ac6/SystemWorkbench/plugins/fr.ac6.mcu.externaltools.arm-none.linux64_1.15.0.201708311556/tools/compiler/bin/../lib/gcc/arm-none-eabi/6.3.1/../../../../arm-none-eabi/lib/thumb/v7-m/libc_nano.a(lib_a-wbuf.o)
 .data          0x0000000000000000        0x0 /home/gwarchol/Ac6/SystemWorkbench/plugins/fr.ac6.mcu.externaltools.arm-none.linux64_1.15.0.201708311556/tools/compiler/bin/../lib/gcc/arm-none-eabi/6.3.1/../../../../arm-none-eabi/lib/thumb/v7-m/libc_nano.a(lib_a-wbuf.o)
 .bss           0x0000000000000000        0x0 /home/gwarchol/Ac6/SystemWorkbench/plugins/fr.ac6.mcu.externaltools.arm-none.linux64_1.15.0.201708311556/tools/compiler/bin/../lib/gcc/arm-none-eabi/6.3.1/../../../../arm-none-eabi/lib/thumb/v7-m/libc_nano.a(lib_a-wbuf.o)
 .text.__swbuf  0x0000000000000000       0x10 /home/gwarchol/Ac6/SystemWorkbench/plugins/fr.ac6.mcu.externaltools.arm-none.linux64_1.15.0.201708311556/tools/compiler/bin/../lib/gcc/arm-none-eabi/6.3.1/../../../../arm-none-eabi/lib/thumb/v7-m/libc_nano.a(lib_a-wbuf.o)
 .text          0x0000000000000000        0x0 /home/gwarchol/Ac6/SystemWorkbench/plugins/fr.ac6.mcu.externaltools.arm-none.linux64_1.15.0.201708311556/tools/compiler/bin/../lib/gcc/arm-none-eabi/6.3.1/../../../../arm-none-eabi/lib/thumb/v7-m/libc_nano.a(lib_a-writer.o)
 .data          0x0000000000000000        0x0 /home/gwarchol/Ac6/SystemWorkbench/plugins/fr.ac6.mcu.externaltools.arm-none.linux64_1.15.0.201708311556/tools/compiler/bin/../lib/gcc/arm-none-eabi/6.3.1/../../../../arm-none-eabi/lib/thumb/v7-m/libc_nano.a(lib_a-writer.o)
 .bss           0x0000000000000000        0x0 /home/gwarchol/Ac6/SystemWorkbench/plugins/fr.ac6.mcu.externaltools.arm-none.linux64_1.15.0.201708311556/tools/compiler/bin/../lib/gcc/arm-none-eabi/6.3.1/../../../../arm-none-eabi/lib/thumb/v7-m/libc_nano.a(lib_a-writer.o)
 .text          0x0000000000000000        0x0 /home/gwarchol/Ac6/SystemWorkbench/plugins/fr.ac6.mcu.externaltools.arm-none.linux64_1.15.0.201708311556/tools/compiler/bin/../lib/gcc/arm-none-eabi/6.3.1/../../../../arm-none-eabi/lib/thumb/v7-m/libc_nano.a(lib_a-wsetup.o)
 .data          0x0000000000000000        0x0 /home/gwarchol/Ac6/SystemWorkbench/plugins/fr.ac6.mcu.externaltools.arm-none.linux64_1.15.0.201708311556/tools/compiler/bin/../lib/gcc/arm-none-eabi/6.3.1/../../../../arm-none-eabi/lib/thumb/v7-m/libc_nano.a(lib_a-wsetup.o)
 .bss           0x0000000000000000        0x0 /home/gwarchol/Ac6/SystemWorkbench/plugins/fr.ac6.mcu.externaltools.arm-none.linux64_1.15.0.201708311556/tools/compiler/bin/../lib/gcc/arm-none-eabi/6.3.1/../../../../arm-none-eabi/lib/thumb/v7-m/libc_nano.a(lib_a-wsetup.o)
 .text          0x0000000000000000        0x0 /home/gwarchol/Ac6/SystemWorkbench/plugins/fr.ac6.mcu.externaltools.arm-none.linux64_1.15.0.201708311556/tools/compiler/bin/../lib/gcc/arm-none-eabi/6.3.1/../../../../arm-none-eabi/lib/thumb/v7-m/libc_nano.a(lib_a-closer.o)
 .data          0x0000000000000000        0x0 /home/gwarchol/Ac6/SystemWorkbench/plugins/fr.ac6.mcu.externaltools.arm-none.linux64_1.15.0.201708311556/tools/compiler/bin/../lib/gcc/arm-none-eabi/6.3.1/../../../../arm-none-eabi/lib/thumb/v7-m/libc_nano.a(lib_a-closer.o)
 .bss           0x0000000000000000        0x0 /home/gwarchol/Ac6/SystemWorkbench/plugins/fr.ac6.mcu.externaltools.arm-none.linux64_1.15.0.201708311556/tools/compiler/bin/../lib/gcc/arm-none-eabi/6.3.1/../../../../arm-none-eabi/lib/thumb/v7-m/libc_nano.a(lib_a-closer.o)
 .text          0x0000000000000000        0x0 /home/gwarchol/Ac6/SystemWorkbench/plugins/fr.ac6.mcu.externaltools.arm-none.linux64_1.15.0.201708311556/tools/compiler/bin/../lib/gcc/arm-none-eabi/6.3.1/../../../../arm-none-eabi/lib/thumb/v7-m/libc_nano.a(lib_a-fflush.o)
 .data          0x0000000000000000        0x0 /home/gwarchol/Ac6/SystemWorkbench/plugins/fr.ac6.mcu.externaltools.arm-none.linux64_1.15.0.201708311556/tools/compiler/bin/../lib/gcc/arm-none-eabi/6.3.1/../../../../arm-none-eabi/lib/thumb/v7-m/libc_nano.a(lib_a-fflush.o)
 .bss           0x0000000000000000        0x0 /home/gwarchol/Ac6/SystemWorkbench/plugins/fr.ac6.mcu.externaltools.arm-none.linux64_1.15.0.201708311556/tools/compiler/bin/../lib/gcc/arm-none-eabi/6.3.1/../../../../arm-none-eabi/lib/thumb/v7-m/libc_nano.a(lib_a-fflush.o)
 .text.fflush   0x0000000000000000       0x24 /home/gwarchol/Ac6/SystemWorkbench/plugins/fr.ac6.mcu.externaltools.arm-none.linux64_1.15.0.201708311556/tools/compiler/bin/../lib/gcc/arm-none-eabi/6.3.1/../../../../arm-none-eabi/lib/thumb/v7-m/libc_nano.a(lib_a-fflush.o)
 .text          0x0000000000000000        0x0 /home/gwarchol/Ac6/SystemWorkbench/plugins/fr.ac6.mcu.externaltools.arm-none.linux64_1.15.0.201708311556/tools/compiler/bin/../lib/gcc/arm-none-eabi/6.3.1/../../../../arm-none-eabi/lib/thumb/v7-m/libc_nano.a(lib_a-lseekr.o)
 .data          0x0000000000000000        0x0 /home/gwarchol/Ac6/SystemWorkbench/plugins/fr.ac6.mcu.externaltools.arm-none.linux64_1.15.0.201708311556/tools/compiler/bin/../lib/gcc/arm-none-eabi/6.3.1/../../../../arm-none-eabi/lib/thumb/v7-m/libc_nano.a(lib_a-lseekr.o)
 .bss           0x0000000000000000        0x0 /home/gwarchol/Ac6/SystemWorkbench/plugins/fr.ac6.mcu.externaltools.arm-none.linux64_1.15.0.201708311556/tools/compiler/bin/../lib/gcc/arm-none-eabi/6.3.1/../../../../arm-none-eabi/lib/thumb/v7-m/libc_nano.a(lib_a-lseekr.o)
 .text          0x0000000000000000        0x0 /home/gwarchol/Ac6/SystemWorkbench/plugins/fr.ac6.mcu.externaltools.arm-none.linux64_1.15.0.201708311556/tools/compiler/bin/../lib/gcc/arm-none-eabi/6.3.1/../../../../arm-none-eabi/lib/thumb/v7-m/libc_nano.a(lib_a-makebuf.o)
 .data          0x0000000000000000        0x0 /home/gwarchol/Ac6/SystemWorkbench/plugins/fr.ac6.mcu.externaltools.arm-none.linux64_1.15.0.201708311556/tools/compiler/bin/../lib/gcc/arm-none-eabi/6.3.1/../../../../arm-none-eabi/lib/thumb/v7-m/libc_nano.a(lib_a-makebuf.o)
 .bss           0x0000000000000000        0x0 /home/gwarchol/Ac6/SystemWorkbench/plugins/fr.ac6.mcu.externaltools.arm-none.linux64_1.15.0.201708311556/tools/compiler/bin/../lib/gcc/arm-none-eabi/6.3.1/../../../../arm-none-eabi/lib/thumb/v7-m/libc_nano.a(lib_a-makebuf.o)
 .text          0x0000000000000000        0x0 /home/gwarchol/Ac6/SystemWorkbench/plugins/fr.ac6.mcu.externaltools.arm-none.linux64_1.15.0.201708311556/tools/compiler/bin/../lib/gcc/arm-none-eabi/6.3.1/../../../../arm-none-eabi/lib/thumb/v7-m/libc_nano.a(lib_a-mlock.o)
 .data          0x0000000000000000        0x0 /home/gwarchol/Ac6/SystemWorkbench/plugins/fr.ac6.mcu.externaltools.arm-none.linux64_1.15.0.201708311556/tools/compiler/bin/../lib/gcc/arm-none-eabi/6.3.1/../../../../arm-none-eabi/lib/thumb/v7-m/libc_nano.a(lib_a-mlock.o)
 .bss           0x0000000000000000        0x0 /home/gwarchol/Ac6/SystemWorkbench/plugins/fr.ac6.mcu.externaltools.arm-none.linux64_1.15.0.201708311556/tools/compiler/bin/../lib/gcc/arm-none-eabi/6.3.1/../../../../arm-none-eabi/lib/thumb/v7-m/libc_nano.a(lib_a-mlock.o)
 .text          0x0000000000000000        0x0 /home/gwarchol/Ac6/SystemWorkbench/plugins/fr.ac6.mcu.externaltools.arm-none.linux64_1.15.0.201708311556/tools/compiler/bin/../lib/gcc/arm-none-eabi/6.3.1/../../../../arm-none-eabi/lib/thumb/v7-m/libc_nano.a(lib_a-nano-freer.o)
 .data          0x0000000000000000        0x0 /home/gwarchol/Ac6/SystemWorkbench/plugins/fr.ac6.mcu.externaltools.arm-none.linux64_1.15.0.201708311556/tools/compiler/bin/../lib/gcc/arm-none-eabi/6.3.1/../../../../arm-none-eabi/lib/thumb/v7-m/libc_nano.a(lib_a-nano-freer.o)
 .bss           0x0000000000000000        0x0 /home/gwarchol/Ac6/SystemWorkbench/plugins/fr.ac6.mcu.externaltools.arm-none.linux64_1.15.0.201708311556/tools/compiler/bin/../lib/gcc/arm-none-eabi/6.3.1/../../../../arm-none-eabi/lib/thumb/v7-m/libc_nano.a(lib_a-nano-freer.o)
 .text          0x0000000000000000        0x0 /home/gwarchol/Ac6/SystemWorkbench/plugins/fr.ac6.mcu.externaltools.arm-none.linux64_1.15.0.201708311556/tools/compiler/bin/../lib/gcc/arm-none-eabi/6.3.1/../../../../arm-none-eabi/lib/thumb/v7-m/libc_nano.a(lib_a-nano-svfprintf.o)
 .data          0x0000000000000000        0x0 /home/gwarchol/Ac6/SystemWorkbench/plugins/fr.ac6.mcu.externaltools.arm-none.linux64_1.15.0.201708311556/tools/compiler/bin/../lib/gcc/arm-none-eabi/6.3.1/../../../../arm-none-eabi/lib/thumb/v7-m/libc_nano.a(lib_a-nano-svfprintf.o)
 .bss           0x0000000000000000        0x0 /home/gwarchol/Ac6/SystemWorkbench/plugins/fr.ac6.mcu.externaltools.arm-none.linux64_1.15.0.201708311556/tools/compiler/bin/../lib/gcc/arm-none-eabi/6.3.1/../../../../arm-none-eabi/lib/thumb/v7-m/libc_nano.a(lib_a-nano-svfprintf.o)
 .text.__ssprint_r
                0x0000000000000000       0xf4 /home/gwarchol/Ac6/SystemWorkbench/plugins/fr.ac6.mcu.externaltools.arm-none.linux64_1.15.0.201708311556/tools/compiler/bin/../lib/gcc/arm-none-eabi/6.3.1/../../../../arm-none-eabi/lib/thumb/v7-m/libc_nano.a(lib_a-nano-svfprintf.o)
 .text          0x0000000000000000        0x0 /home/gwarchol/Ac6/SystemWorkbench/plugins/fr.ac6.mcu.externaltools.arm-none.linux64_1.15.0.201708311556/tools/compiler/bin/../lib/gcc/arm-none-eabi/6.3.1/../../../../arm-none-eabi/lib/thumb/v7-m/libc_nano.a(lib_a-nano-vfprintf.o)
 .data          0x0000000000000000        0x0 /home/gwarchol/Ac6/SystemWorkbench/plugins/fr.ac6.mcu.externaltools.arm-none.linux64_1.15.0.201708311556/tools/compiler/bin/../lib/gcc/arm-none-eabi/6.3.1/../../../../arm-none-eabi/lib/thumb/v7-m/libc_nano.a(lib_a-nano-vfprintf.o)
 .bss           0x0000000000000000        0x0 /home/gwarchol/Ac6/SystemWorkbench/plugins/fr.ac6.mcu.externaltools.arm-none.linux64_1.15.0.201708311556/tools/compiler/bin/../lib/gcc/arm-none-eabi/6.3.1/../../../../arm-none-eabi/lib/thumb/v7-m/libc_nano.a(lib_a-nano-vfprintf.o)
 .text.__sprint_r
                0x0000000000000000       0x1a /home/gwarchol/Ac6/SystemWorkbench/plugins/fr.ac6.mcu.externaltools.arm-none.linux64_1.15.0.201708311556/tools/compiler/bin/../lib/gcc/arm-none-eabi/6.3.1/../../../../arm-none-eabi/lib/thumb/v7-m/libc_nano.a(lib_a-nano-vfprintf.o)
 .text.vfprintf
                0x0000000000000000       0x14 /home/gwarchol/Ac6/SystemWorkbench/plugins/fr.ac6.mcu.externaltools.arm-none.linux64_1.15.0.201708311556/tools/compiler/bin/../lib/gcc/arm-none-eabi/6.3.1/../../../../arm-none-eabi/lib/thumb/v7-m/libc_nano.a(lib_a-nano-vfprintf.o)
 .text          0x0000000000000000        0x0 /home/gwarchol/Ac6/SystemWorkbench/plugins/fr.ac6.mcu.externaltools.arm-none.linux64_1.15.0.201708311556/tools/compiler/bin/../lib/gcc/arm-none-eabi/6.3.1/../../../../arm-none-eabi/lib/thumb/v7-m/libc_nano.a(lib_a-nano-vfprintf_i.o)
 .data          0x0000000000000000        0x0 /home/gwarchol/Ac6/SystemWorkbench/plugins/fr.ac6.mcu.externaltools.arm-none.linux64_1.15.0.201708311556/tools/compiler/bin/../lib/gcc/arm-none-eabi/6.3.1/../../../../arm-none-eabi/lib/thumb/v7-m/libc_nano.a(lib_a-nano-vfprintf_i.o)
 .bss           0x0000000000000000        0x0 /home/gwarchol/Ac6/SystemWorkbench/plugins/fr.ac6.mcu.externaltools.arm-none.linux64_1.15.0.201708311556/tools/compiler/bin/../lib/gcc/arm-none-eabi/6.3.1/../../../../arm-none-eabi/lib/thumb/v7-m/libc_nano.a(lib_a-nano-vfprintf_i.o)
 .text          0x0000000000000000        0x0 /home/gwarchol/Ac6/SystemWorkbench/plugins/fr.ac6.mcu.externaltools.arm-none.linux64_1.15.0.201708311556/tools/compiler/bin/../lib/gcc/arm-none-eabi/6.3.1/../../../../arm-none-eabi/lib/thumb/v7-m/libc_nano.a(lib_a-putc.o)
 .data          0x0000000000000000        0x0 /home/gwarchol/Ac6/SystemWorkbench/plugins/fr.ac6.mcu.externaltools.arm-none.linux64_1.15.0.201708311556/tools/compiler/bin/../lib/gcc/arm-none-eabi/6.3.1/../../../../arm-none-eabi/lib/thumb/v7-m/libc_nano.a(lib_a-putc.o)
 .bss           0x0000000000000000        0x0 /home/gwarchol/Ac6/SystemWorkbench/plugins/fr.ac6.mcu.externaltools.arm-none.linux64_1.15.0.201708311556/tools/compiler/bin/../lib/gcc/arm-none-eabi/6.3.1/../../../../arm-none-eabi/lib/thumb/v7-m/libc_nano.a(lib_a-putc.o)
 .text.putc     0x0000000000000000       0x10 /home/gwarchol/Ac6/SystemWorkbench/plugins/fr.ac6.mcu.externaltools.arm-none.linux64_1.15.0.201708311556/tools/compiler/bin/../lib/gcc/arm-none-eabi/6.3.1/../../../../arm-none-eabi/lib/thumb/v7-m/libc_nano.a(lib_a-putc.o)
 .text          0x0000000000000000        0x0 /home/gwarchol/Ac6/SystemWorkbench/plugins/fr.ac6.mcu.externaltools.arm-none.linux64_1.15.0.201708311556/tools/compiler/bin/../lib/gcc/arm-none-eabi/6.3.1/../../../../arm-none-eabi/lib/thumb/v7-m/libc_nano.a(lib_a-readr.o)
 .data          0x0000000000000000        0x0 /home/gwarchol/Ac6/SystemWorkbench/plugins/fr.ac6.mcu.externaltools.arm-none.linux64_1.15.0.201708311556/tools/compiler/bin/../lib/gcc/arm-none-eabi/6.3.1/../../../../arm-none-eabi/lib/thumb/v7-m/libc_nano.a(lib_a-readr.o)
 .bss           0x0000000000000000        0x0 /home/gwarchol/Ac6/SystemWorkbench/plugins/fr.ac6.mcu.externaltools.arm-none.linux64_1.15.0.201708311556/tools/compiler/bin/../lib/gcc/arm-none-eabi/6.3.1/../../../../arm-none-eabi/lib/thumb/v7-m/libc_nano.a(lib_a-readr.o)
 .text          0x0000000000000000        0x0 /home/gwarchol/Ac6/SystemWorkbench/plugins/fr.ac6.mcu.externaltools.arm-none.linux64_1.15.0.201708311556/tools/compiler/bin/../lib/gcc/arm-none-eabi/6.3.1/../../../../arm-none-eabi/lib/thumb/v7-m/libc_nano.a(lib_a-reent.o)
 .data          0x0000000000000000        0x0 /home/gwarchol/Ac6/SystemWorkbench/plugins/fr.ac6.mcu.externaltools.arm-none.linux64_1.15.0.201708311556/tools/compiler/bin/../lib/gcc/arm-none-eabi/6.3.1/../../../../arm-none-eabi/lib/thumb/v7-m/libc_nano.a(lib_a-reent.o)
 .bss           0x0000000000000000        0x0 /home/gwarchol/Ac6/SystemWorkbench/plugins/fr.ac6.mcu.externaltools.arm-none.linux64_1.15.0.201708311556/tools/compiler/bin/../lib/gcc/arm-none-eabi/6.3.1/../../../../arm-none-eabi/lib/thumb/v7-m/libc_nano.a(lib_a-reent.o)
 .text.cleanup_glue
                0x0000000000000000       0x1a /home/gwarchol/Ac6/SystemWorkbench/plugins/fr.ac6.mcu.externaltools.arm-none.linux64_1.15.0.201708311556/tools/compiler/bin/../lib/gcc/arm-none-eabi/6.3.1/../../../../arm-none-eabi/lib/thumb/v7-m/libc_nano.a(lib_a-reent.o)
 .text._reclaim_reent
                0x0000000000000000       0xb8 /home/gwarchol/Ac6/SystemWorkbench/plugins/fr.ac6.mcu.externaltools.arm-none.linux64_1.15.0.201708311556/tools/compiler/bin/../lib/gcc/arm-none-eabi/6.3.1/../../../../arm-none-eabi/lib/thumb/v7-m/libc_nano.a(lib_a-reent.o)
 .text          0x0000000000000000        0x0 /home/gwarchol/Ac6/SystemWorkbench/plugins/fr.ac6.mcu.externaltools.arm-none.linux64_1.15.0.201708311556/tools/compiler/bin/../lib/gcc/arm-none-eabi/6.3.1/../../../../arm-none-eabi/lib/thumb/v7-m/libc_nano.a(lib_a-fstatr.o)
 .data          0x0000000000000000        0x0 /home/gwarchol/Ac6/SystemWorkbench/plugins/fr.ac6.mcu.externaltools.arm-none.linux64_1.15.0.201708311556/tools/compiler/bin/../lib/gcc/arm-none-eabi/6.3.1/../../../../arm-none-eabi/lib/thumb/v7-m/libc_nano.a(lib_a-fstatr.o)
 .bss           0x0000000000000000        0x0 /home/gwarchol/Ac6/SystemWorkbench/plugins/fr.ac6.mcu.externaltools.arm-none.linux64_1.15.0.201708311556/tools/compiler/bin/../lib/gcc/arm-none-eabi/6.3.1/../../../../arm-none-eabi/lib/thumb/v7-m/libc_nano.a(lib_a-fstatr.o)
 .text          0x0000000000000000        0x0 /home/gwarchol/Ac6/SystemWorkbench/plugins/fr.ac6.mcu.externaltools.arm-none.linux64_1.15.0.201708311556/tools/compiler/bin/../lib/gcc/arm-none-eabi/6.3.1/../../../../arm-none-eabi/lib/thumb/v7-m/libc_nano.a(lib_a-fvwrite.o)
 .data          0x0000000000000000        0x0 /home/gwarchol/Ac6/SystemWorkbench/plugins/fr.ac6.mcu.externaltools.arm-none.linux64_1.15.0.201708311556/tools/compiler/bin/../lib/gcc/arm-none-eabi/6.3.1/../../../../arm-none-eabi/lib/thumb/v7-m/libc_nano.a(lib_a-fvwrite.o)
 .bss           0x0000000000000000        0x0 /home/gwarchol/Ac6/SystemWorkbench/plugins/fr.ac6.mcu.externaltools.arm-none.linux64_1.15.0.201708311556/tools/compiler/bin/../lib/gcc/arm-none-eabi/6.3.1/../../../../arm-none-eabi/lib/thumb/v7-m/libc_nano.a(lib_a-fvwrite.o)
 .text.__sfvwrite_r
                0x0000000000000000      0x29c /home/gwarchol/Ac6/SystemWorkbench/plugins/fr.ac6.mcu.externaltools.arm-none.linux64_1.15.0.201708311556/tools/compiler/bin/../lib/gcc/arm-none-eabi/6.3.1/../../../../arm-none-eabi/lib/thumb/v7-m/libc_nano.a(lib_a-fvwrite.o)
 .debug_frame   0x0000000000000000       0x3c /home/gwarchol/Ac6/SystemWorkbench/plugins/fr.ac6.mcu.externaltools.arm-none.linux64_1.15.0.201708311556/tools/compiler/bin/../lib/gcc/arm-none-eabi/6.3.1/../../../../arm-none-eabi/lib/thumb/v7-m/libc_nano.a(lib_a-fvwrite.o)
 .ARM.attributes
                0x0000000000000000       0x2d /home/gwarchol/Ac6/SystemWorkbench/plugins/fr.ac6.mcu.externaltools.arm-none.linux64_1.15.0.201708311556/tools/compiler/bin/../lib/gcc/arm-none-eabi/6.3.1/../../../../arm-none-eabi/lib/thumb/v7-m/libc_nano.a(lib_a-fvwrite.o)
 .text          0x0000000000000000        0x0 /home/gwarchol/Ac6/SystemWorkbench/plugins/fr.ac6.mcu.externaltools.arm-none.linux64_1.15.0.201708311556/tools/compiler/bin/../lib/gcc/arm-none-eabi/6.3.1/../../../../arm-none-eabi/lib/thumb/v7-m/libc_nano.a(lib_a-isattyr.o)
 .data          0x0000000000000000        0x0 /home/gwarchol/Ac6/SystemWorkbench/plugins/fr.ac6.mcu.externaltools.arm-none.linux64_1.15.0.201708311556/tools/compiler/bin/../lib/gcc/arm-none-eabi/6.3.1/../../../../arm-none-eabi/lib/thumb/v7-m/libc_nano.a(lib_a-isattyr.o)
 .bss           0x0000000000000000        0x0 /home/gwarchol/Ac6/SystemWorkbench/plugins/fr.ac6.mcu.externaltools.arm-none.linux64_1.15.0.201708311556/tools/compiler/bin/../lib/gcc/arm-none-eabi/6.3.1/../../../../arm-none-eabi/lib/thumb/v7-m/libc_nano.a(lib_a-isattyr.o)
 .text          0x0000000000000000        0x0 /home/gwarchol/Ac6/SystemWorkbench/plugins/fr.ac6.mcu.externaltools.arm-none.linux64_1.15.0.201708311556/tools/compiler/bin/../lib/gcc/arm-none-eabi/6.3.1/../../../../arm-none-eabi/lib/thumb/v7-m/libc_nano.a(lib_a-memchr-stub.o)
 .data          0x0000000000000000        0x0 /home/gwarchol/Ac6/SystemWorkbench/plugins/fr.ac6.mcu.externaltools.arm-none.linux64_1.15.0.201708311556/tools/compiler/bin/../lib/gcc/arm-none-eabi/6.3.1/../../../../arm-none-eabi/lib/thumb/v7-m/libc_nano.a(lib_a-memchr-stub.o)
 .bss           0x0000000000000000        0x0 /home/gwarchol/Ac6/SystemWorkbench/plugins/fr.ac6.mcu.externaltools.arm-none.linux64_1.15.0.201708311556/tools/compiler/bin/../lib/gcc/arm-none-eabi/6.3.1/../../../../arm-none-eabi/lib/thumb/v7-m/libc_nano.a(lib_a-memchr-stub.o)
 .text          0x0000000000000000        0x0 /home/gwarchol/Ac6/SystemWorkbench/plugins/fr.ac6.mcu.externaltools.arm-none.linux64_1.15.0.201708311556/tools/compiler/bin/../lib/gcc/arm-none-eabi/6.3.1/../../../../arm-none-eabi/lib/thumb/v7-m/libc_nano.a(lib_a-memcpy-stub.o)
 .data          0x0000000000000000        0x0 /home/gwarchol/Ac6/SystemWorkbench/plugins/fr.ac6.mcu.externaltools.arm-none.linux64_1.15.0.201708311556/tools/compiler/bin/../lib/gcc/arm-none-eabi/6.3.1/../../../../arm-none-eabi/lib/thumb/v7-m/libc_nano.a(lib_a-memcpy-stub.o)
 .bss           0x0000000000000000        0x0 /home/gwarchol/Ac6/SystemWorkbench/plugins/fr.ac6.mcu.externaltools.arm-none.linux64_1.15.0.201708311556/tools/compiler/bin/../lib/gcc/arm-none-eabi/6.3.1/../../../../arm-none-eabi/lib/thumb/v7-m/libc_nano.a(lib_a-memcpy-stub.o)
 .text          0x0000000000000000        0x0 /home/gwarchol/Ac6/SystemWorkbench/plugins/fr.ac6.mcu.externaltools.arm-none.linux64_1.15.0.201708311556/tools/compiler/bin/../lib/gcc/arm-none-eabi/6.3.1/../../../../arm-none-eabi/lib/thumb/v7-m/libc_nano.a(lib_a-memmove.o)
 .data          0x0000000000000000        0x0 /home/gwarchol/Ac6/SystemWorkbench/plugins/fr.ac6.mcu.externaltools.arm-none.linux64_1.15.0.201708311556/tools/compiler/bin/../lib/gcc/arm-none-eabi/6.3.1/../../../../arm-none-eabi/lib/thumb/v7-m/libc_nano.a(lib_a-memmove.o)
 .bss           0x0000000000000000        0x0 /home/gwarchol/Ac6/SystemWorkbench/plugins/fr.ac6.mcu.externaltools.arm-none.linux64_1.15.0.201708311556/tools/compiler/bin/../lib/gcc/arm-none-eabi/6.3.1/../../../../arm-none-eabi/lib/thumb/v7-m/libc_nano.a(lib_a-memmove.o)
 .text          0x0000000000000000        0x0 /home/gwarchol/Ac6/SystemWorkbench/plugins/fr.ac6.mcu.externaltools.arm-none.linux64_1.15.0.201708311556/tools/compiler/bin/../lib/gcc/arm-none-eabi/6.3.1/../../../../arm-none-eabi/lib/thumb/v7-m/libc_nano.a(lib_a-nano-reallocr.o)
 .data          0x0000000000000000        0x0 /home/gwarchol/Ac6/SystemWorkbench/plugins/fr.ac6.mcu.externaltools.arm-none.linux64_1.15.0.201708311556/tools/compiler/bin/../lib/gcc/arm-none-eabi/6.3.1/../../../../arm-none-eabi/lib/thumb/v7-m/libc_nano.a(lib_a-nano-reallocr.o)
 .bss           0x0000000000000000        0x0 /home/gwarchol/Ac6/SystemWorkbench/plugins/fr.ac6.mcu.externaltools.arm-none.linux64_1.15.0.201708311556/tools/compiler/bin/../lib/gcc/arm-none-eabi/6.3.1/../../../../arm-none-eabi/lib/thumb/v7-m/libc_nano.a(lib_a-nano-reallocr.o)
 .text          0x0000000000000000        0x0 /home/gwarchol/Ac6/SystemWorkbench/plugins/fr.ac6.mcu.externaltools.arm-none.linux64_1.15.0.201708311556/tools/compiler/bin/../lib/gcc/arm-none-eabi/6.3.1/../../../../arm-none-eabi/lib/thumb/v7-m/libc_nano.a(lib_a-nano-msizer.o)
 .data          0x0000000000000000        0x0 /home/gwarchol/Ac6/SystemWorkbench/plugins/fr.ac6.mcu.externaltools.arm-none.linux64_1.15.0.201708311556/tools/compiler/bin/../lib/gcc/arm-none-eabi/6.3.1/../../../../arm-none-eabi/lib/thumb/v7-m/libc_nano.a(lib_a-nano-msizer.o)
 .bss           0x0000000000000000        0x0 /home/gwarchol/Ac6/SystemWorkbench/plugins/fr.ac6.mcu.externaltools.arm-none.linux64_1.15.0.201708311556/tools/compiler/bin/../lib/gcc/arm-none-eabi/6.3.1/../../../../arm-none-eabi/lib/thumb/v7-m/libc_nano.a(lib_a-nano-msizer.o)
 .text          0x0000000000000000        0x0 /home/gwarchol/Ac6/SystemWorkbench/plugins/fr.ac6.mcu.externaltools.arm-none.linux64_1.15.0.201708311556/tools/compiler/bin/../lib/gcc/arm-none-eabi/6.3.1/thumb/v7-m/crtend.o
 .data          0x0000000000000000        0x0 /home/gwarchol/Ac6/SystemWorkbench/plugins/fr.ac6.mcu.externaltools.arm-none.linux64_1.15.0.201708311556/tools/compiler/bin/../lib/gcc/arm-none-eabi/6.3.1/thumb/v7-m/crtend.o
 .bss           0x0000000000000000        0x0 /home/gwarchol/Ac6/SystemWorkbench/plugins/fr.ac6.mcu.externaltools.arm-none.linux64_1.15.0.201708311556/tools/compiler/bin/../lib/gcc/arm-none-eabi/6.3.1/thumb/v7-m/crtend.o
 .eh_frame      0x0000000000000000        0x4 /home/gwarchol/Ac6/SystemWorkbench/plugins/fr.ac6.mcu.externaltools.arm-none.linux64_1.15.0.201708311556/tools/compiler/bin/../lib/gcc/arm-none-eabi/6.3.1/thumb/v7-m/crtend.o
 .jcr           0x0000000000000000        0x4 /home/gwarchol/Ac6/SystemWorkbench/plugins/fr.ac6.mcu.externaltools.arm-none.linux64_1.15.0.201708311556/tools/compiler/bin/../lib/gcc/arm-none-eabi/6.3.1/thumb/v7-m/crtend.o
 .ARM.attributes
                0x0000000000000000       0x2d /home/gwarchol/Ac6/SystemWorkbench/plugins/fr.ac6.mcu.externaltools.arm-none.linux64_1.15.0.201708311556/tools/compiler/bin/../lib/gcc/arm-none-eabi/6.3.1/thumb/v7-m/crtend.o
 .text          0x0000000000000000        0x0 /home/gwarchol/Ac6/SystemWorkbench/plugins/fr.ac6.mcu.externaltools.arm-none.linux64_1.15.0.201708311556/tools/compiler/bin/../lib/gcc/arm-none-eabi/6.3.1/thumb/v7-m/crtn.o
 .data          0x0000000000000000        0x0 /home/gwarchol/Ac6/SystemWorkbench/plugins/fr.ac6.mcu.externaltools.arm-none.linux64_1.15.0.201708311556/tools/compiler/bin/../lib/gcc/arm-none-eabi/6.3.1/thumb/v7-m/crtn.o
 .bss           0x0000000000000000        0x0 /home/gwarchol/Ac6/SystemWorkbench/plugins/fr.ac6.mcu.externaltools.arm-none.linux64_1.15.0.201708311556/tools/compiler/bin/../lib/gcc/arm-none-eabi/6.3.1/thumb/v7-m/crtn.o

Memory Configuration

Name             Origin             Length             Attributes
RAM              0x0000000020000000 0x0000000000005000 xrw
ROM              0x0000000008000000 0x0000000000020000 xr
*default*        0x0000000000000000 0xffffffffffffffff

Linker script and memory map

LOAD /home/gwarchol/Ac6/SystemWorkbench/plugins/fr.ac6.mcu.externaltools.arm-none.linux64_1.15.0.201708311556/tools/compiler/bin/../lib/gcc/arm-none-eabi/6.3.1/thumb/v7-m/crti.o
LOAD /home/gwarchol/Ac6/SystemWorkbench/plugins/fr.ac6.mcu.externaltools.arm-none.linux64_1.15.0.201708311556/tools/compiler/bin/../lib/gcc/arm-none-eabi/6.3.1/thumb/v7-m/crtbegin.o
LOAD /home/gwarchol/Ac6/SystemWorkbench/plugins/fr.ac6.mcu.externaltools.arm-none.linux64_1.15.0.201708311556/tools/compiler/bin/../lib/gcc/arm-none-eabi/6.3.1/../../../../arm-none-eabi/lib/thumb/v7-m/rdimon-crt0.o
LOAD /home/gwarchol/Ac6/SystemWorkbench/plugins/fr.ac6.mcu.externaltools.arm-none.linux64_1.15.0.201708311556/tools/compiler/bin/../lib/gcc/arm-none-eabi/6.3.1/../../../../arm-none-eabi/lib/thumb/v7-m/libc_nano.a
LOAD /home/gwarchol/Ac6/SystemWorkbench/plugins/fr.ac6.mcu.externaltools.arm-none.linux64_1.15.0.201708311556/tools/compiler/bin/../lib/gcc/arm-none-eabi/6.3.1/../../../../arm-none-eabi/lib/thumb/v7-m/librdimon_nano.a
LOAD CMSIS/core/core_cm3.o
LOAD StdPeriph_Driver/src/misc.o
LOAD StdPeriph_Driver/src/stm32f10x_adc.o
LOAD StdPeriph_Driver/src/stm32f10x_bkp.o
LOAD StdPeriph_Driver/src/stm32f10x_can.o
LOAD StdPeriph_Driver/src/stm32f10x_cec.o
LOAD StdPeriph_Driver/src/stm32f10x_crc.o
LOAD StdPeriph_Driver/src/stm32f10x_dac.o
LOAD StdPeriph_Driver/src/stm32f10x_dbgmcu.o
LOAD StdPeriph_Driver/src/stm32f10x_dma.o
LOAD StdPeriph_Driver/src/stm32f10x_exti.o
LOAD StdPeriph_Driver/src/stm32f10x_flash.o
LOAD StdPeriph_Driver/src/stm32f10x_fsmc.o
LOAD StdPeriph_Driver/src/stm32f10x_gpio.o
LOAD StdPeriph_Driver/src/stm32f10x_i2c.o
LOAD StdPeriph_Driver/src/stm32f10x_iwdg.o
LOAD StdPeriph_Driver/src/stm32f10x_pwr.o
LOAD StdPeriph_Driver/src/stm32f10x_rcc.o
LOAD StdPeriph_Driver/src/stm32f10x_rtc.o
LOAD StdPeriph_Driver/src/stm32f10x_sdio.o
LOAD StdPeriph_Driver/src/stm32f10x_spi.o
LOAD StdPeriph_Driver/src/stm32f10x_tim.o
LOAD StdPeriph_Driver/src/stm32f10x_usart.o
LOAD StdPeriph_Driver/src/stm32f10x_wwdg.o
LOAD lib/ILI9341/core.o
LOAD lib/ILI9341/delay.o
LOAD lib/ILI9341/dma.o
LOAD lib/ILI9341/graph.o
LOAD lib/ILI9341/text.o
LOAD lib/tinystd/itoa.o
LOAD src/DFPPlayer.o
LOAD src/bmp180.o
LOAD src/buffors.o
LOAD src/device_config.o
LOAD src/main.o
LOAD src/menu.o
LOAD src/rtc.o
LOAD src/scan_timer.o
LOAD src/system_stm32f10x.o
LOAD src/timers.o
LOAD src/touch_screen.o
LOAD src/uart_interrupt.o
LOAD src/usart_dma.o
LOAD startup/startup_stm32.o
LOAD /home/gwarchol/Ac6/SystemWorkbench/plugins/fr.ac6.mcu.externaltools.arm-none.linux64_1.15.0.201708311556/tools/compiler/bin/../lib/gcc/arm-none-eabi/6.3.1/../../../../arm-none-eabi/lib/thumb/v7-m/libm.a
START GROUP
LOAD /home/gwarchol/Ac6/SystemWorkbench/plugins/fr.ac6.mcu.externaltools.arm-none.linux64_1.15.0.201708311556/tools/compiler/bin/../lib/gcc/arm-none-eabi/6.3.1/thumb/v7-m/libgcc.a
LOAD /home/gwarchol/Ac6/SystemWorkbench/plugins/fr.ac6.mcu.externaltools.arm-none.linux64_1.15.0.201708311556/tools/compiler/bin/../lib/gcc/arm-none-eabi/6.3.1/../../../../arm-none-eabi/lib/thumb/v7-m/libc_nano.a
END GROUP
START GROUP
LOAD /home/gwarchol/Ac6/SystemWorkbench/plugins/fr.ac6.mcu.externaltools.arm-none.linux64_1.15.0.201708311556/tools/compiler/bin/../lib/gcc/arm-none-eabi/6.3.1/thumb/v7-m/libgcc.a
LOAD /home/gwarchol/Ac6/SystemWorkbench/plugins/fr.ac6.mcu.externaltools.arm-none.linux64_1.15.0.201708311556/tools/compiler/bin/../lib/gcc/arm-none-eabi/6.3.1/../../../../arm-none-eabi/lib/thumb/v7-m/libc_nano.a
LOAD /home/gwarchol/Ac6/SystemWorkbench/plugins/fr.ac6.mcu.externaltools.arm-none.linux64_1.15.0.201708311556/tools/compiler/bin/../lib/gcc/arm-none-eabi/6.3.1/../../../../arm-none-eabi/lib/thumb/v7-m/libnosys.a
END GROUP
START GROUP
LOAD /home/gwarchol/Ac6/SystemWorkbench/plugins/fr.ac6.mcu.externaltools.arm-none.linux64_1.15.0.201708311556/tools/compiler/bin/../lib/gcc/arm-none-eabi/6.3.1/thumb/v7-m/libgcc.a
LOAD /home/gwarchol/Ac6/SystemWorkbench/plugins/fr.ac6.mcu.externaltools.arm-none.linux64_1.15.0.201708311556/tools/compiler/bin/../lib/gcc/arm-none-eabi/6.3.1/../../../../arm-none-eabi/lib/thumb/v7-m/libc_nano.a
LOAD /home/gwarchol/Ac6/SystemWorkbench/plugins/fr.ac6.mcu.externaltools.arm-none.linux64_1.15.0.201708311556/tools/compiler/bin/../lib/gcc/arm-none-eabi/6.3.1/../../../../arm-none-eabi/lib/thumb/v7-m/librdimon_nano.a
LOAD /home/gwarchol/Ac6/SystemWorkbench/plugins/fr.ac6.mcu.externaltools.arm-none.linux64_1.15.0.201708311556/tools/compiler/bin/../lib/gcc/arm-none-eabi/6.3.1/../../../../arm-none-eabi/lib/thumb/v7-m/libnosys.a
END GROUP
START GROUP
LOAD /home/gwarchol/Ac6/SystemWorkbench/plugins/fr.ac6.mcu.externaltools.arm-none.linux64_1.15.0.201708311556/tools/compiler/bin/../lib/gcc/arm-none-eabi/6.3.1/thumb/v7-m/libgcc.a
LOAD /home/gwarchol/Ac6/SystemWorkbench/plugins/fr.ac6.mcu.externaltools.arm-none.linux64_1.15.0.201708311556/tools/compiler/bin/../lib/gcc/arm-none-eabi/6.3.1/../../../../arm-none-eabi/lib/thumb/v7-m/libc_nano.a
LOAD /home/gwarchol/Ac6/SystemWorkbench/plugins/fr.ac6.mcu.externaltools.arm-none.linux64_1.15.0.201708311556/tools/compiler/bin/../lib/gcc/arm-none-eabi/6.3.1/../../../../arm-none-eabi/lib/thumb/v7-m/librdimon_nano.a
END GROUP
LOAD /home/gwarchol/Ac6/SystemWorkbench/plugins/fr.ac6.mcu.externaltools.arm-none.linux64_1.15.0.201708311556/tools/compiler/bin/../lib/gcc/arm-none-eabi/6.3.1/thumb/v7-m/crtend.o
LOAD /home/gwarchol/Ac6/SystemWorkbench/plugins/fr.ac6.mcu.externaltools.arm-none.linux64_1.15.0.201708311556/tools/compiler/bin/../lib/gcc/arm-none-eabi/6.3.1/thumb/v7-m/crtn.o
                0x0000000020005000                _estack = 0x20005000
                0x0000000000000000                _Min_Heap_Size = 0x0
                0x0000000000000400                _Min_Stack_Size = 0x400

.isr_vector     0x0000000008000000      0x130
                0x0000000008000000                . = ALIGN (0x4)
 *(.isr_vector)
 .isr_vector    0x0000000008000000      0x130 startup/startup_stm32.o
                0x0000000008000000                g_pfnVectors
                0x0000000008000130                . = ALIGN (0x4)

.text           0x0000000008000130     0x5918
                0x0000000008000130                . = ALIGN (0x4)
 *(.text)
 .text          0x0000000008000130       0x6c /home/gwarchol/Ac6/SystemWorkbench/plugins/fr.ac6.mcu.externaltools.arm-none.linux64_1.15.0.201708311556/tools/compiler/bin/../lib/gcc/arm-none-eabi/6.3.1/thumb/v7-m/crtbegin.o
 *(.text*)
 .text.__libc_init_array
                0x000000000800019c       0x48 /home/gwarchol/Ac6/SystemWorkbench/plugins/fr.ac6.mcu.externaltools.arm-none.linux64_1.15.0.201708311556/tools/compiler/bin/../lib/gcc/arm-none-eabi/6.3.1/../../../../arm-none-eabi/lib/thumb/v7-m/libc_nano.a(lib_a-init.o)
                0x000000000800019c                __libc_init_array
 .text.memset   0x00000000080001e4       0x10 /home/gwarchol/Ac6/SystemWorkbench/plugins/fr.ac6.mcu.externaltools.arm-none.linux64_1.15.0.201708311556/tools/compiler/bin/../lib/gcc/arm-none-eabi/6.3.1/../../../../arm-none-eabi/lib/thumb/v7-m/libc_nano.a(lib_a-memset.o)
                0x00000000080001e4                memset
 .text.findslot
                0x00000000080001f4       0x34 /home/gwarchol/Ac6/SystemWorkbench/plugins/fr.ac6.mcu.externaltools.arm-none.linux64_1.15.0.201708311556/tools/compiler/bin/../lib/gcc/arm-none-eabi/6.3.1/../../../../arm-none-eabi/lib/thumb/v7-m/librdimon_nano.a(rdimon-syscalls.o)
 .text.checkerror
                0x0000000008000228       0x20 /home/gwarchol/Ac6/SystemWorkbench/plugins/fr.ac6.mcu.externaltools.arm-none.linux64_1.15.0.201708311556/tools/compiler/bin/../lib/gcc/arm-none-eabi/6.3.1/../../../../arm-none-eabi/lib/thumb/v7-m/librdimon_nano.a(rdimon-syscalls.o)
 .text.error    0x0000000008000248       0x1c /home/gwarchol/Ac6/SystemWorkbench/plugins/fr.ac6.mcu.externaltools.arm-none.linux64_1.15.0.201708311556/tools/compiler/bin/../lib/gcc/arm-none-eabi/6.3.1/../../../../arm-none-eabi/lib/thumb/v7-m/librdimon_nano.a(rdimon-syscalls.o)
 .text.initialise_monitor_handles
                0x0000000008000264       0xa4 /home/gwarchol/Ac6/SystemWorkbench/plugins/fr.ac6.mcu.externaltools.arm-none.linux64_1.15.0.201708311556/tools/compiler/bin/../lib/gcc/arm-none-eabi/6.3.1/../../../../arm-none-eabi/lib/thumb/v7-m/librdimon_nano.a(rdimon-syscalls.o)
                0x0000000008000264                initialise_monitor_handles
 .text._swiread
                0x0000000008000308       0x20 /home/gwarchol/Ac6/SystemWorkbench/plugins/fr.ac6.mcu.externaltools.arm-none.linux64_1.15.0.201708311556/tools/compiler/bin/../lib/gcc/arm-none-eabi/6.3.1/../../../../arm-none-eabi/lib/thumb/v7-m/librdimon_nano.a(rdimon-syscalls.o)
                0x0000000008000308                _swiread
 .text._read    0x0000000008000328       0x34 /home/gwarchol/Ac6/SystemWorkbench/plugins/fr.ac6.mcu.externaltools.arm-none.linux64_1.15.0.201708311556/tools/compiler/bin/../lib/gcc/arm-none-eabi/6.3.1/../../../../arm-none-eabi/lib/thumb/v7-m/librdimon_nano.a(rdimon-syscalls.o)
                0x0000000008000328                _read
 .text._swilseek
                0x000000000800035c       0x7a /home/gwarchol/Ac6/SystemWorkbench/plugins/fr.ac6.mcu.externaltools.arm-none.linux64_1.15.0.201708311556/tools/compiler/bin/../lib/gcc/arm-none-eabi/6.3.1/../../../../arm-none-eabi/lib/thumb/v7-m/librdimon_nano.a(rdimon-syscalls.o)
                0x000000000800035c                _swilseek
 .text._lseek   0x00000000080003d6        0x4 /home/gwarchol/Ac6/SystemWorkbench/plugins/fr.ac6.mcu.externaltools.arm-none.linux64_1.15.0.201708311556/tools/compiler/bin/../lib/gcc/arm-none-eabi/6.3.1/../../../../arm-none-eabi/lib/thumb/v7-m/librdimon_nano.a(rdimon-syscalls.o)
                0x00000000080003d6                _lseek
 .text._swiwrite
                0x00000000080003da       0x20 /home/gwarchol/Ac6/SystemWorkbench/plugins/fr.ac6.mcu.externaltools.arm-none.linux64_1.15.0.201708311556/tools/compiler/bin/../lib/gcc/arm-none-eabi/6.3.1/../../../../arm-none-eabi/lib/thumb/v7-m/librdimon_nano.a(rdimon-syscalls.o)
                0x00000000080003da                _swiwrite
 .text._write   0x00000000080003fa       0x40 /home/gwarchol/Ac6/SystemWorkbench/plugins/fr.ac6.mcu.externaltools.arm-none.linux64_1.15.0.201708311556/tools/compiler/bin/../lib/gcc/arm-none-eabi/6.3.1/../../../../arm-none-eabi/lib/thumb/v7-m/librdimon_nano.a(rdimon-syscalls.o)
                0x00000000080003fa                _write
 .text._swiclose
                0x000000000800043a       0x1c /home/gwarchol/Ac6/SystemWorkbench/plugins/fr.ac6.mcu.externaltools.arm-none.linux64_1.15.0.201708311556/tools/compiler/bin/../lib/gcc/arm-none-eabi/6.3.1/../../../../arm-none-eabi/lib/thumb/v7-m/librdimon_nano.a(rdimon-syscalls.o)
                0x000000000800043a                _swiclose
 *fill*         0x0000000008000456        0x2 
 .text._close   0x0000000008000458       0x48 /home/gwarchol/Ac6/SystemWorkbench/plugins/fr.ac6.mcu.externaltools.arm-none.linux64_1.15.0.201708311556/tools/compiler/bin/../lib/gcc/arm-none-eabi/6.3.1/../../../../arm-none-eabi/lib/thumb/v7-m/librdimon_nano.a(rdimon-syscalls.o)
                0x0000000008000458                _close
 .text._sbrk    0x00000000080004a0       0x48 /home/gwarchol/Ac6/SystemWorkbench/plugins/fr.ac6.mcu.externaltools.arm-none.linux64_1.15.0.201708311556/tools/compiler/bin/../lib/gcc/arm-none-eabi/6.3.1/../../../../arm-none-eabi/lib/thumb/v7-m/librdimon_nano.a(rdimon-syscalls.o)
                0x00000000080004a0                _sbrk
 .text._swistat
                0x00000000080004e8       0x42 /home/gwarchol/Ac6/SystemWorkbench/plugins/fr.ac6.mcu.externaltools.arm-none.linux64_1.15.0.201708311556/tools/compiler/bin/../lib/gcc/arm-none-eabi/6.3.1/../../../../arm-none-eabi/lib/thumb/v7-m/librdimon_nano.a(rdimon-syscalls.o)
                0x00000000080004e8                _swistat
 .text._fstat   0x000000000800052a       0x1c /home/gwarchol/Ac6/SystemWorkbench/plugins/fr.ac6.mcu.externaltools.arm-none.linux64_1.15.0.201708311556/tools/compiler/bin/../lib/gcc/arm-none-eabi/6.3.1/../../../../arm-none-eabi/lib/thumb/v7-m/librdimon_nano.a(rdimon-syscalls.o)
                0x000000000800052a                _fstat
 .text._isatty  0x0000000008000546       0x38 /home/gwarchol/Ac6/SystemWorkbench/plugins/fr.ac6.mcu.externaltools.arm-none.linux64_1.15.0.201708311556/tools/compiler/bin/../lib/gcc/arm-none-eabi/6.3.1/../../../../arm-none-eabi/lib/thumb/v7-m/librdimon_nano.a(rdimon-syscalls.o)
                0x0000000008000546                _isatty
 *fill*         0x000000000800057e        0x2 
 .text.NVIC_PriorityGroupConfig
                0x0000000008000580       0x14 StdPeriph_Driver/src/misc.o
                0x0000000008000580                NVIC_PriorityGroupConfig
 .text.NVIC_Init
                0x0000000008000594       0x68 StdPeriph_Driver/src/misc.o
                0x0000000008000594                NVIC_Init
 .text.NVIC_SystemLPConfig
                0x00000000080005fc       0x1c StdPeriph_Driver/src/misc.o
                0x00000000080005fc                NVIC_SystemLPConfig
 .text.BKP_DeInit
                0x0000000008000618       0x10 StdPeriph_Driver/src/stm32f10x_bkp.o
                0x0000000008000618                BKP_DeInit
 .text.BKP_WriteBackupRegister
                0x0000000008000628       0x1c StdPeriph_Driver/src/stm32f10x_bkp.o
                0x0000000008000628                BKP_WriteBackupRegister
 .text.BKP_ReadBackupRegister
                0x0000000008000644       0x20 StdPeriph_Driver/src/stm32f10x_bkp.o
                0x0000000008000644                BKP_ReadBackupRegister
 .text.DBGMCU_Config
                0x0000000008000664       0x1c StdPeriph_Driver/src/stm32f10x_dbgmcu.o
                0x0000000008000664                DBGMCU_Config
 .text.DMA_Init
                0x0000000008000680       0x3e StdPeriph_Driver/src/stm32f10x_dma.o
                0x0000000008000680                DMA_Init
 .text.DMA_StructInit
                0x00000000080006be       0x1a StdPeriph_Driver/src/stm32f10x_dma.o
                0x00000000080006be                DMA_StructInit
 .text.DMA_Cmd  0x00000000080006d8       0x1a StdPeriph_Driver/src/stm32f10x_dma.o
                0x00000000080006d8                DMA_Cmd
 .text.DMA_ITConfig
                0x00000000080006f2       0x14 StdPeriph_Driver/src/stm32f10x_dma.o
                0x00000000080006f2                DMA_ITConfig
 *fill*         0x0000000008000706        0x2 
 .text.DMA_GetITStatus
                0x0000000008000708       0x24 StdPeriph_Driver/src/stm32f10x_dma.o
                0x0000000008000708                DMA_GetITStatus
 .text.DMA_ClearITPendingBit
                0x000000000800072c       0x1c StdPeriph_Driver/src/stm32f10x_dma.o
                0x000000000800072c                DMA_ClearITPendingBit
 .text.EXTI_Init
                0x0000000008000748       0x8c StdPeriph_Driver/src/stm32f10x_exti.o
                0x0000000008000748                EXTI_Init
 .text.EXTI_ClearITPendingBit
                0x00000000080007d4        0xc StdPeriph_Driver/src/stm32f10x_exti.o
                0x00000000080007d4                EXTI_ClearITPendingBit
 .text.FLASH_SetLatency
                0x00000000080007e0       0x14 StdPeriph_Driver/src/stm32f10x_flash.o
                0x00000000080007e0                FLASH_SetLatency
 .text.FLASH_PrefetchBufferCmd
                0x00000000080007f4       0x18 StdPeriph_Driver/src/stm32f10x_flash.o
                0x00000000080007f4                FLASH_PrefetchBufferCmd
 .text.GPIO_Init
                0x000000000800080c       0x9e StdPeriph_Driver/src/stm32f10x_gpio.o
                0x000000000800080c                GPIO_Init
 .text.GPIO_SetBits
                0x00000000080008aa        0x4 StdPeriph_Driver/src/stm32f10x_gpio.o
                0x00000000080008aa                GPIO_SetBits
 .text.GPIO_ResetBits
                0x00000000080008ae        0x4 StdPeriph_Driver/src/stm32f10x_gpio.o
                0x00000000080008ae                GPIO_ResetBits
 .text.GPIO_WriteBit
                0x00000000080008b2        0xa StdPeriph_Driver/src/stm32f10x_gpio.o
                0x00000000080008b2                GPIO_WriteBit
 .text.GPIO_EXTILineConfig
                0x00000000080008bc       0x34 StdPeriph_Driver/src/stm32f10x_gpio.o
                0x00000000080008bc                GPIO_EXTILineConfig
 .text.I2C_DeInit
                0x00000000080008f0       0x38 StdPeriph_Driver/src/stm32f10x_i2c.o
                0x00000000080008f0                I2C_DeInit
 .text.I2C_Init
                0x0000000008000928       0xdc StdPeriph_Driver/src/stm32f10x_i2c.o
                0x0000000008000928                I2C_Init
 .text.I2C_Cmd  0x0000000008000a04       0x1c StdPeriph_Driver/src/stm32f10x_i2c.o
                0x0000000008000a04                I2C_Cmd
 .text.I2C_GenerateSTART
                0x0000000008000a20       0x1c StdPeriph_Driver/src/stm32f10x_i2c.o
                0x0000000008000a20                I2C_GenerateSTART
 .text.I2C_GenerateSTOP
                0x0000000008000a3c       0x1c StdPeriph_Driver/src/stm32f10x_i2c.o
                0x0000000008000a3c                I2C_GenerateSTOP
 .text.I2C_AcknowledgeConfig
                0x0000000008000a58       0x1c StdPeriph_Driver/src/stm32f10x_i2c.o
                0x0000000008000a58                I2C_AcknowledgeConfig
 .text.I2C_SendData
                0x0000000008000a74        0x4 StdPeriph_Driver/src/stm32f10x_i2c.o
                0x0000000008000a74                I2C_SendData
 .text.I2C_ReceiveData
                0x0000000008000a78        0x6 StdPeriph_Driver/src/stm32f10x_i2c.o
                0x0000000008000a78                I2C_ReceiveData
 .text.I2C_Send7bitAddress
                0x0000000008000a7e       0x12 StdPeriph_Driver/src/stm32f10x_i2c.o
                0x0000000008000a7e                I2C_Send7bitAddress
 .text.I2C_CheckEvent
                0x0000000008000a90       0x1c StdPeriph_Driver/src/stm32f10x_i2c.o
                0x0000000008000a90                I2C_CheckEvent
 .text.I2C_GetFlagStatus
                0x0000000008000aac       0x38 StdPeriph_Driver/src/stm32f10x_i2c.o
                0x0000000008000aac                I2C_GetFlagStatus
 .text.PWR_BackupAccessCmd
                0x0000000008000ae4        0xc StdPeriph_Driver/src/stm32f10x_pwr.o
                0x0000000008000ae4                PWR_BackupAccessCmd
 .text.RCC_DeInit
                0x0000000008000af0       0x40 StdPeriph_Driver/src/stm32f10x_rcc.o
                0x0000000008000af0                RCC_DeInit
 .text.RCC_HSEConfig
                0x0000000008000b30       0x3c StdPeriph_Driver/src/stm32f10x_rcc.o
                0x0000000008000b30                RCC_HSEConfig
 .text.RCC_PLLConfig
                0x0000000008000b6c       0x14 StdPeriph_Driver/src/stm32f10x_rcc.o
                0x0000000008000b6c                RCC_PLLConfig
 .text.RCC_PLLCmd
                0x0000000008000b80        0xc StdPeriph_Driver/src/stm32f10x_rcc.o
                0x0000000008000b80                RCC_PLLCmd
 .text.RCC_SYSCLKConfig
                0x0000000008000b8c       0x14 StdPeriph_Driver/src/stm32f10x_rcc.o
                0x0000000008000b8c                RCC_SYSCLKConfig
 .text.RCC_GetSYSCLKSource
                0x0000000008000ba0       0x10 StdPeriph_Driver/src/stm32f10x_rcc.o
                0x0000000008000ba0                RCC_GetSYSCLKSource
 .text.RCC_HCLKConfig
                0x0000000008000bb0       0x14 StdPeriph_Driver/src/stm32f10x_rcc.o
                0x0000000008000bb0                RCC_HCLKConfig
 .text.RCC_PCLK1Config
                0x0000000008000bc4       0x14 StdPeriph_Driver/src/stm32f10x_rcc.o
                0x0000000008000bc4                RCC_PCLK1Config
 .text.RCC_PCLK2Config
                0x0000000008000bd8       0x14 StdPeriph_Driver/src/stm32f10x_rcc.o
                0x0000000008000bd8                RCC_PCLK2Config
 .text.RCC_LSEConfig
                0x0000000008000bec       0x28 StdPeriph_Driver/src/stm32f10x_rcc.o
                0x0000000008000bec                RCC_LSEConfig
 .text.RCC_RTCCLKConfig
                0x0000000008000c14       0x10 StdPeriph_Driver/src/stm32f10x_rcc.o
                0x0000000008000c14                RCC_RTCCLKConfig
 .text.RCC_RTCCLKCmd
                0x0000000008000c24        0xc StdPeriph_Driver/src/stm32f10x_rcc.o
                0x0000000008000c24                RCC_RTCCLKCmd
 .text.RCC_GetClocksFreq
                0x0000000008000c30       0xb8 StdPeriph_Driver/src/stm32f10x_rcc.o
                0x0000000008000c30                RCC_GetClocksFreq
 .text.RCC_AHBPeriphClockCmd
                0x0000000008000ce8       0x1c StdPeriph_Driver/src/stm32f10x_rcc.o
                0x0000000008000ce8                RCC_AHBPeriphClockCmd
 .text.RCC_APB2PeriphClockCmd
                0x0000000008000d04       0x1c StdPeriph_Driver/src/stm32f10x_rcc.o
                0x0000000008000d04                RCC_APB2PeriphClockCmd
 .text.RCC_APB1PeriphClockCmd
                0x0000000008000d20       0x1c StdPeriph_Driver/src/stm32f10x_rcc.o
                0x0000000008000d20                RCC_APB1PeriphClockCmd
 .text.RCC_APB1PeriphResetCmd
                0x0000000008000d3c       0x1c StdPeriph_Driver/src/stm32f10x_rcc.o
                0x0000000008000d3c                RCC_APB1PeriphResetCmd
 .text.RCC_BackupResetCmd
                0x0000000008000d58        0xc StdPeriph_Driver/src/stm32f10x_rcc.o
                0x0000000008000d58                RCC_BackupResetCmd
 .text.RCC_GetFlagStatus
                0x0000000008000d64       0x34 StdPeriph_Driver/src/stm32f10x_rcc.o
                0x0000000008000d64                RCC_GetFlagStatus
 .text.RCC_WaitForHSEStartUp
                0x0000000008000d98       0x34 StdPeriph_Driver/src/stm32f10x_rcc.o
                0x0000000008000d98                RCC_WaitForHSEStartUp
 .text.RCC_ClearFlag
                0x0000000008000dcc       0x10 StdPeriph_Driver/src/stm32f10x_rcc.o
                0x0000000008000dcc                RCC_ClearFlag
 .text.RTC_ITConfig
                0x0000000008000ddc       0x20 StdPeriph_Driver/src/stm32f10x_rtc.o
                0x0000000008000ddc                RTC_ITConfig
 .text.RTC_EnterConfigMode
                0x0000000008000dfc       0x14 StdPeriph_Driver/src/stm32f10x_rtc.o
                0x0000000008000dfc                RTC_EnterConfigMode
 .text.RTC_ExitConfigMode
                0x0000000008000e10       0x14 StdPeriph_Driver/src/stm32f10x_rtc.o
                0x0000000008000e10                RTC_ExitConfigMode
 .text.RTC_GetCounter
                0x0000000008000e24       0x14 StdPeriph_Driver/src/stm32f10x_rtc.o
                0x0000000008000e24                RTC_GetCounter
 .text.RTC_SetCounter
                0x0000000008000e38       0x1c StdPeriph_Driver/src/stm32f10x_rtc.o
                0x0000000008000e38                RTC_SetCounter
 .text.RTC_SetPrescaler
                0x0000000008000e54       0x20 StdPeriph_Driver/src/stm32f10x_rtc.o
                0x0000000008000e54                RTC_SetPrescaler
 .text.RTC_SetAlarm
                0x0000000008000e74       0x1c StdPeriph_Driver/src/stm32f10x_rtc.o
                0x0000000008000e74                RTC_SetAlarm
 .text.RTC_GetAlarm
                0x0000000008000e90       0x10 StdPeriph_Driver/src/stm32f10x_rtc.o
                0x0000000008000e90                RTC_GetAlarm
 .text.RTC_WaitForLastTask
                0x0000000008000ea0       0x10 StdPeriph_Driver/src/stm32f10x_rtc.o
                0x0000000008000ea0                RTC_WaitForLastTask
 .text.RTC_WaitForSynchro
                0x0000000008000eb0       0x20 StdPeriph_Driver/src/stm32f10x_rtc.o
                0x0000000008000eb0                RTC_WaitForSynchro
 .text.RTC_GetITStatus
                0x0000000008000ed0       0x20 StdPeriph_Driver/src/stm32f10x_rtc.o
                0x0000000008000ed0                RTC_GetITStatus
 .text.RTC_ClearITPendingBit
                0x0000000008000ef0       0x14 StdPeriph_Driver/src/stm32f10x_rtc.o
                0x0000000008000ef0                RTC_ClearITPendingBit
 .text.SPI_Init
                0x0000000008000f04       0x4c StdPeriph_Driver/src/stm32f10x_spi.o
                0x0000000008000f04                SPI_Init
 .text.SPI_StructInit
                0x0000000008000f50       0x18 StdPeriph_Driver/src/stm32f10x_spi.o
                0x0000000008000f50                SPI_StructInit
 .text.SPI_Cmd  0x0000000008000f68       0x1c StdPeriph_Driver/src/stm32f10x_spi.o
                0x0000000008000f68                SPI_Cmd
 .text.SPI_I2S_ITConfig
                0x0000000008000f84       0x20 StdPeriph_Driver/src/stm32f10x_spi.o
                0x0000000008000f84                SPI_I2S_ITConfig
 .text.SPI_I2S_DMACmd
                0x0000000008000fa4       0x18 StdPeriph_Driver/src/stm32f10x_spi.o
                0x0000000008000fa4                SPI_I2S_DMACmd
 .text.SPI_I2S_SendData
                0x0000000008000fbc        0x4 StdPeriph_Driver/src/stm32f10x_spi.o
                0x0000000008000fbc                SPI_I2S_SendData
 .text.SPI_I2S_ReceiveData
                0x0000000008000fc0        0x6 StdPeriph_Driver/src/stm32f10x_spi.o
                0x0000000008000fc0                SPI_I2S_ReceiveData
 .text.SPI_I2S_GetFlagStatus
                0x0000000008000fc6        0xe StdPeriph_Driver/src/stm32f10x_spi.o
                0x0000000008000fc6                SPI_I2S_GetFlagStatus
 .text.SPI_I2S_GetITStatus
                0x0000000008000fd4       0x2e StdPeriph_Driver/src/stm32f10x_spi.o
                0x0000000008000fd4                SPI_I2S_GetITStatus
 .text.SPI_I2S_ClearITPendingBit
                0x0000000008001002       0x12 StdPeriph_Driver/src/stm32f10x_spi.o
                0x0000000008001002                SPI_I2S_ClearITPendingBit
 .text.TIM_TimeBaseInit
                0x0000000008001014       0x94 StdPeriph_Driver/src/stm32f10x_tim.o
                0x0000000008001014                TIM_TimeBaseInit
 .text.TIM_OC1Init
                0x00000000080010a8       0x84 StdPeriph_Driver/src/stm32f10x_tim.o
                0x00000000080010a8                TIM_OC1Init
 .text.TIM_OC2Init
                0x000000000800112c       0x88 StdPeriph_Driver/src/stm32f10x_tim.o
                0x000000000800112c                TIM_OC2Init
 .text.TIM_OC3Init
                0x00000000080011b4       0x84 StdPeriph_Driver/src/stm32f10x_tim.o
                0x00000000080011b4                TIM_OC3Init
 .text.TIM_OC4Init
                0x0000000008001238       0x6c StdPeriph_Driver/src/stm32f10x_tim.o
                0x0000000008001238                TIM_OC4Init
 .text.TIM_Cmd  0x00000000080012a4       0x1c StdPeriph_Driver/src/stm32f10x_tim.o
                0x00000000080012a4                TIM_Cmd
 .text.TIM_ITConfig
                0x00000000080012c0       0x18 StdPeriph_Driver/src/stm32f10x_tim.o
                0x00000000080012c0                TIM_ITConfig
 .text.TIM_OC1PreloadConfig
                0x00000000080012d8        0xe StdPeriph_Driver/src/stm32f10x_tim.o
                0x00000000080012d8                TIM_OC1PreloadConfig
 .text.TIM_OC2PreloadConfig
                0x00000000080012e6       0x12 StdPeriph_Driver/src/stm32f10x_tim.o
                0x00000000080012e6                TIM_OC2PreloadConfig
 .text.TIM_OC3PreloadConfig
                0x00000000080012f8        0xe StdPeriph_Driver/src/stm32f10x_tim.o
                0x00000000080012f8                TIM_OC3PreloadConfig
 .text.TIM_OC4PreloadConfig
                0x0000000008001306       0x12 StdPeriph_Driver/src/stm32f10x_tim.o
                0x0000000008001306                TIM_OC4PreloadConfig
 .text.TIM_SetCompare1
                0x0000000008001318        0x4 StdPeriph_Driver/src/stm32f10x_tim.o
                0x0000000008001318                TIM_SetCompare1
 .text.TIM_SetCompare2
                0x000000000800131c        0x4 StdPeriph_Driver/src/stm32f10x_tim.o
                0x000000000800131c                TIM_SetCompare2
 .text.TIM_SetCompare3
                0x0000000008001320        0x4 StdPeriph_Driver/src/stm32f10x_tim.o
                0x0000000008001320                TIM_SetCompare3
 .text.TIM_SetCompare4
                0x0000000008001324        0x6 StdPeriph_Driver/src/stm32f10x_tim.o
                0x0000000008001324                TIM_SetCompare4
 .text.TIM_GetCapture1
                0x000000000800132a        0x6 StdPeriph_Driver/src/stm32f10x_tim.o
                0x000000000800132a                TIM_GetCapture1
 .text.TIM_GetCapture2
                0x0000000008001330        0x6 StdPeriph_Driver/src/stm32f10x_tim.o
                0x0000000008001330                TIM_GetCapture2
 .text.TIM_GetCapture3
                0x0000000008001336        0x6 StdPeriph_Driver/src/stm32f10x_tim.o
                0x0000000008001336                TIM_GetCapture3
 .text.TIM_GetCapture4
                0x000000000800133c        0x8 StdPeriph_Driver/src/stm32f10x_tim.o
                0x000000000800133c                TIM_GetCapture4
 .text.TIM_GetITStatus
                0x0000000008001344       0x18 StdPeriph_Driver/src/stm32f10x_tim.o
                0x0000000008001344                TIM_GetITStatus
 .text.TIM_ClearITPendingBit
                0x000000000800135c        0x8 StdPeriph_Driver/src/stm32f10x_tim.o
                0x000000000800135c                TIM_ClearITPendingBit
 .text.USART_Init
                0x0000000008001364       0xc8 StdPeriph_Driver/src/stm32f10x_usart.o
                0x0000000008001364                USART_Init
 .text.USART_Cmd
                0x000000000800142c       0x1c StdPeriph_Driver/src/stm32f10x_usart.o
                0x000000000800142c                USART_Cmd
 .text.USART_ITConfig
                0x0000000008001448       0x38 StdPeriph_Driver/src/stm32f10x_usart.o
                0x0000000008001448                USART_ITConfig
 .text.USART_SendData
                0x0000000008001480        0x8 StdPeriph_Driver/src/stm32f10x_usart.o
                0x0000000008001480                USART_SendData
 .text.USART_ReceiveData
                0x0000000008001488        0x8 StdPeriph_Driver/src/stm32f10x_usart.o
                0x0000000008001488                USART_ReceiveData
 .text.USART_GetFlagStatus
                0x0000000008001490        0xe StdPeriph_Driver/src/stm32f10x_usart.o
                0x0000000008001490                USART_GetFlagStatus
 *fill*         0x000000000800149e        0x2 
 .text.LCD_pinsInit
                0x00000000080014a0       0xb0 lib/ILI9341/core.o
 .text.LCD_reset
                0x0000000008001550       0x28 lib/ILI9341/core.o
                0x0000000008001550                LCD_reset
 .text.LCD_exitStandby
                0x0000000008001578       0x16 lib/ILI9341/core.o
                0x0000000008001578                LCD_exitStandby
 *fill*         0x000000000800158e        0x2 
 .text.LCD_setOrientation
                0x0000000008001590       0x58 lib/ILI9341/core.o
                0x0000000008001590                LCD_setOrientation
 .text.LCD_configure
                0x00000000080015e8       0x40 lib/ILI9341/core.o
 .text.LCD_init
                0x0000000008001628       0x2c lib/ILI9341/core.o
                0x0000000008001628                LCD_init
 .text.LCD_setAddressWindow
                0x0000000008001654       0xe0 lib/ILI9341/core.o
                0x0000000008001654                LCD_setAddressWindow
 .text.LCD_getWidth
                0x0000000008001734        0xc lib/ILI9341/core.o
                0x0000000008001734                LCD_getWidth
 .text.LCD_getHeight
                0x0000000008001740        0xc lib/ILI9341/core.o
                0x0000000008001740                LCD_getHeight
 .text.LCD_setSpi8
                0x000000000800174c       0x2c lib/ILI9341/core.o
                0x000000000800174c                LCD_setSpi8
 .text.LCD_setSpi16
                0x0000000008001778       0x28 lib/ILI9341/core.o
                0x0000000008001778                LCD_setSpi16
 .text.SysTick_Handler
                0x00000000080017a0       0x10 lib/ILI9341/delay.o
                0x00000000080017a0                SysTick_Handler
 .text.delay_ms
                0x00000000080017b0       0x58 lib/ILI9341/delay.o
                0x00000000080017b0                delay_ms
 .text.dmaInit  0x0000000008001808       0x54 lib/ILI9341/dma.o
                0x0000000008001808                dmaInit
 .text.dmaSendCmd
                0x000000000800185c       0x84 lib/ILI9341/dma.o
                0x000000000800185c                dmaSendCmd
 .text.dmaSendCmdCont
                0x00000000080018e0       0x70 lib/ILI9341/dma.o
                0x00000000080018e0                dmaSendCmdCont
 .text.dmaReceiveDataCont8
                0x0000000008001950       0x94 lib/ILI9341/dma.o
                0x0000000008001950                dmaReceiveDataCont8
 .text.dmaSendDataCont8
                0x00000000080019e4       0x68 lib/ILI9341/dma.o
                0x00000000080019e4                dmaSendDataCont8
 .text.dmaSendData16
                0x0000000008001a4c       0x84 lib/ILI9341/dma.o
                0x0000000008001a4c                dmaSendData16
 .text.dmaSendDataCont16
                0x0000000008001ad0       0x70 lib/ILI9341/dma.o
                0x0000000008001ad0                dmaSendDataCont16
 .text.dmaFill16
                0x0000000008001b40       0xf8 lib/ILI9341/dma.o
                0x0000000008001b40                dmaFill16
 .text.DMA1_Channel2_IRQHandler
                0x0000000008001c38       0x24 lib/ILI9341/dma.o
                0x0000000008001c38                DMA1_Channel2_IRQHandler
 .text.DMA1_Channel3_IRQHandler
                0x0000000008001c5c       0x28 lib/ILI9341/dma.o
                0x0000000008001c5c                DMA1_Channel3_IRQHandler
 .text.LCD_readPixels
                0x0000000008001c84       0x8c lib/ILI9341/graph.o
                0x0000000008001c84                LCD_readPixels
 .text.LCD_fillRect
                0x0000000008001d10       0x34 lib/ILI9341/graph.o
                0x0000000008001d10                LCD_fillRect
 .text.LCD_fillScreen
                0x0000000008001d44       0x3a lib/ILI9341/graph.o
                0x0000000008001d44                LCD_fillScreen
 .text.LCD_drawRect
                0x0000000008001d7e      0x210 lib/ILI9341/graph.o
                0x0000000008001d7e                LCD_drawRect
 *fill*         0x0000000008001f8e        0x2 
 .text.LCD_writeString
                0x0000000008001f90      0x238 lib/ILI9341/text.o
                0x0000000008001f90                LCD_writeString
 .text.LCD_setCursor
                0x00000000080021c8        0xc lib/ILI9341/text.o
                0x00000000080021c8                LCD_setCursor
 .text.LCD_setTextSize
                0x00000000080021d4        0xc lib/ILI9341/text.o
                0x00000000080021d4                LCD_setTextSize
 .text.LCD_setTextColor
                0x00000000080021e0        0xc lib/ILI9341/text.o
                0x00000000080021e0                LCD_setTextColor
 .text.LCD_setTextBgColor
                0x00000000080021ec        0xc lib/ILI9341/text.o
                0x00000000080021ec                LCD_setTextBgColor
 .text.MP3_init
                0x00000000080021f8       0xc0 src/DFPPlayer.o
                0x00000000080021f8                MP3_init
 .text.MP3_clear_RXBuffer
                0x00000000080022b8       0x38 src/DFPPlayer.o
                0x00000000080022b8                MP3_clear_RXBuffer
 .text.USART1_IRQHandler
                0x00000000080022f0       0x70 src/DFPPlayer.o
                0x00000000080022f0                USART1_IRQHandler
 .text.MP3_checksum
                0x0000000008002360       0x20 src/DFPPlayer.o
                0x0000000008002360                MP3_checksum
 .text.MP3_send_cmd
                0x0000000008002380       0x48 src/DFPPlayer.o
                0x0000000008002380                MP3_send_cmd
 .text.MP3_queue_processing
                0x00000000080023c8       0x5c src/DFPPlayer.o
                0x00000000080023c8                MP3_queue_processing
 .text.MP3_set_folder
                0x0000000008002424        0xc src/DFPPlayer.o
                0x0000000008002424                MP3_set_folder
 .text.BMP180_Init
                0x0000000008002430       0x98 src/bmp180.o
                0x0000000008002430                BMP180_Init
 .text.BMP180_WriteReg
                0x00000000080024c8       0x74 src/bmp180.o
                0x00000000080024c8                BMP180_WriteReg
 .text.BMP180_ReadReg
                0x000000000800253c       0xbc src/bmp180.o
                0x000000000800253c                BMP180_ReadReg
 .text.BMP180_ReadCalibration
                0x00000000080025f8      0x184 src/bmp180.o
                0x00000000080025f8                BMP180_ReadCalibration
 .text.init_bmp180
                0x000000000800277c       0x20 src/bmp180.o
                0x000000000800277c                init_bmp180
 .text.BMP180_Read_UT
                0x000000000800279c       0xdc src/bmp180.o
                0x000000000800279c                BMP180_Read_UT
 .text.BMP180_Read_PT
                0x0000000008002878      0x118 src/bmp180.o
                0x0000000008002878                BMP180_Read_PT
 .text.BMP180_Calc_RT
                0x0000000008002990       0x30 src/bmp180.o
                0x0000000008002990                BMP180_Calc_RT
 .text.read_temperature_str
                0x00000000080029c0       0x44 src/bmp180.o
                0x00000000080029c0                read_temperature_str
 .text.BMP180_Calc_RP
                0x0000000008002a04       0xa8 src/bmp180.o
                0x0000000008002a04                BMP180_Calc_RP
 .text.read_pressure_str
                0x0000000008002aac       0x58 src/bmp180.o
                0x0000000008002aac                read_pressure_str
 .text.sleep_mode_init
                0x0000000008002b04       0x70 src/device_config.o
                0x0000000008002b04                sleep_mode_init
 .text.EXTI0_IRQHandler
                0x0000000008002b74       0x1c src/device_config.o
                0x0000000008002b74                EXTI0_IRQHandler
 .text.device_init
                0x0000000008002b90       0x2c src/device_config.o
                0x0000000008002b90                device_init
 .text.turnOnOffLed
                0x0000000008002bbc       0x28 src/device_config.o
                0x0000000008002bbc                turnOnOffLed
 .text.RCC_Conf
                0x0000000008002be4       0x64 src/device_config.o
                0x0000000008002be4                RCC_Conf
 .text.main     0x0000000008002c48       0xd4 src/main.o
                0x0000000008002c48                main
 .text.working_day_checked
                0x0000000008002d1c        0xc src/menu.o
                0x0000000008002d1c                working_day_checked
 .text.alarm_on_checked
                0x0000000008002d28        0xc src/menu.o
                0x0000000008002d28                alarm_on_checked
 .text.get_menu_state
                0x0000000008002d34        0xc src/menu.o
                0x0000000008002d34                get_menu_state
 .text.on_button_released
                0x0000000008002d40       0x14 src/menu.o
                0x0000000008002d40                on_button_released
 .text.increment_set_clk_state
                0x0000000008002d54       0x1c src/menu.o
                0x0000000008002d54                increment_set_clk_state
 .text.increment_set_date_state
                0x0000000008002d70       0x1c src/menu.o
                0x0000000008002d70                increment_set_date_state
 .text.increment_set_alarm_state
                0x0000000008002d8c       0x1c src/menu.o
                0x0000000008002d8c                increment_set_alarm_state
 .text.create_menu
                0x0000000008002da8       0xe4 src/menu.o
                0x0000000008002da8                create_menu
 .text.setMenuState
                0x0000000008002e8c       0x24 src/menu.o
                0x0000000008002e8c                setMenuState
 .text.read_environmental_parameters
                0x0000000008002eb0       0x18 src/menu.o
                0x0000000008002eb0                read_environmental_parameters
 .text.on_set_working_day
                0x0000000008002ec8       0x1c src/menu.o
                0x0000000008002ec8                on_set_working_day
 .text.on_set_alarm
                0x0000000008002ee4       0x1c src/menu.o
                0x0000000008002ee4                on_set_alarm
 .text.on_set_alarm_up
                0x0000000008002f00       0x34 src/menu.o
                0x0000000008002f00                on_set_alarm_up
 .text.on_set_alarm_down
                0x0000000008002f34       0x34 src/menu.o
                0x0000000008002f34                on_set_alarm_down
 .text.on_set_up
                0x0000000008002f68       0x5c src/menu.o
                0x0000000008002f68                on_set_up
 .text.on_set_down
                0x0000000008002fc4       0x5c src/menu.o
                0x0000000008002fc4                on_set_down
 .text.show_menu
                0x0000000008003020      0x444 src/menu.o
                0x0000000008003020                show_menu
 .text.NVIC_RTC_Configuration
                0x0000000008003464       0x44 src/rtc.o
                0x0000000008003464                NVIC_RTC_Configuration
 .text.RTCAlarm_IRQHandler
                0x00000000080034a8        0x2 src/rtc.o
                0x00000000080034a8                RTCAlarm_IRQHandler
 *fill*         0x00000000080034aa        0x2 
 .text.read_alarm
                0x00000000080034ac       0xec src/rtc.o
                0x00000000080034ac                read_alarm
 .text.read_time
                0x0000000008003598       0xd8 src/rtc.o
                0x0000000008003598                read_time
 .text.read_date
                0x0000000008003670       0x78 src/rtc.o
                0x0000000008003670                read_date
 .text.addAlarmHour
                0x00000000080036e8       0x10 src/rtc.o
                0x00000000080036e8                addAlarmHour
 .text.removeAlarmHour
                0x00000000080036f8       0x10 src/rtc.o
                0x00000000080036f8                removeAlarmHour
 .text.addAlarmMinute
                0x0000000008003708        0xe src/rtc.o
                0x0000000008003708                addAlarmMinute
 .text.removeAlarmMinute
                0x0000000008003716        0xe src/rtc.o
                0x0000000008003716                removeAlarmMinute
 .text.addAlarmSec
                0x0000000008003724        0xe src/rtc.o
                0x0000000008003724                addAlarmSec
 .text.removeAlarmSec
                0x0000000008003732        0xe src/rtc.o
                0x0000000008003732                removeAlarmSec
 .text.addHour  0x0000000008003740       0x18 src/rtc.o
                0x0000000008003740                addHour
 .text.removeHour
                0x0000000008003758       0x18 src/rtc.o
                0x0000000008003758                removeHour
 .text.addMin   0x0000000008003770       0x16 src/rtc.o
                0x0000000008003770                addMin
 .text.removeMin
                0x0000000008003786       0x16 src/rtc.o
                0x0000000008003786                removeMin
 .text.addSec   0x000000000800379c       0x16 src/rtc.o
                0x000000000800379c                addSec
 .text.removeSec
                0x00000000080037b2       0x16 src/rtc.o
                0x00000000080037b2                removeSec
 .text.save_time
                0x00000000080037c8       0x22 src/rtc.o
                0x00000000080037c8                save_time
 *fill*         0x00000000080037ea        0x2 
 .text.check_leap
                0x00000000080037ec       0x40 src/rtc.o
                0x00000000080037ec                check_leap
 .text.prev_date
                0x000000000800382c       0xf4 src/rtc.o
                0x000000000800382c                prev_date
 .text.removeDay
                0x0000000008003920        0x8 src/rtc.o
                0x0000000008003920                removeDay
 .text.removeMonth
                0x0000000008003928       0x3e src/rtc.o
                0x0000000008003928                removeMonth
 .text.removeYear
                0x0000000008003966       0x1e src/rtc.o
                0x0000000008003966                removeYear
 .text.update_date
                0x0000000008003984       0xf0 src/rtc.o
                0x0000000008003984                update_date
 .text.check_next_day
                0x0000000008003a74       0x2c src/rtc.o
                0x0000000008003a74                check_next_day
 .text.analize_clock_clendar_state
                0x0000000008003aa0       0x1c src/rtc.o
                0x0000000008003aa0                analize_clock_clendar_state
 .text.addDay   0x0000000008003abc        0x8 src/rtc.o
                0x0000000008003abc                addDay
 .text.addMonth
                0x0000000008003ac4       0x3e src/rtc.o
                0x0000000008003ac4                addMonth
 .text.addYear  0x0000000008003b02       0x1e src/rtc.o
                0x0000000008003b02                addYear
 .text.save_date
                0x0000000008003b20       0x90 src/rtc.o
                0x0000000008003b20                save_date
 .text.set_alarm
                0x0000000008003bb0       0x2c src/rtc.o
                0x0000000008003bb0                set_alarm
 .text.check_for_days_elapsed
                0x0000000008003bdc       0x5c src/rtc.o
                0x0000000008003bdc                check_for_days_elapsed
 .text.RTC_Configuration
                0x0000000008003c38       0xcc src/rtc.o
                0x0000000008003c38                RTC_Configuration
 .text.rtc_init
                0x0000000008003d04       0x64 src/rtc.o
                0x0000000008003d04                rtc_init
 .text.day_of_week
                0x0000000008003d68       0x94 src/rtc.o
                0x0000000008003d68                day_of_week
 .text.RTC_IRQHandler
                0x0000000008003dfc       0x78 src/rtc.o
                0x0000000008003dfc                RTC_IRQHandler
 .text.getTimerChannelState
                0x0000000008003e74       0x34 src/scan_timer.o
                0x0000000008003e74                getTimerChannelState
 .text.setTimerChannelState
                0x0000000008003ea8       0x28 src/scan_timer.o
                0x0000000008003ea8                setTimerChannelState
 .text.init_timer
                0x0000000008003ed0       0xe4 src/scan_timer.o
                0x0000000008003ed0                init_timer
 .text.TIM1_CC_IRQHandler
                0x0000000008003fb4       0xdc src/scan_timer.o
                0x0000000008003fb4                TIM1_CC_IRQHandler
 .text.SetSysClockTo72
                0x0000000008004090       0xc4 src/system_stm32f10x.o
 .text.SetSysClock
                0x0000000008004154        0x8 src/system_stm32f10x.o
 .text.SystemInit
                0x000000000800415c       0x50 src/system_stm32f10x.o
                0x000000000800415c                SystemInit
 .text.TIM2_IRQHandler
                0x00000000080041ac       0xdc src/timers.o
                0x00000000080041ac                TIM2_IRQHandler
 .text.set_pushed_filter
                0x0000000008004288        0xc src/touch_screen.o
                0x0000000008004288                set_pushed_filter
 .text.DMA1_Channel4_IRQHandler
                0x0000000008004294       0x2c src/touch_screen.o
                0x0000000008004294                DMA1_Channel4_IRQHandler
 .text.DMA1_Channel5_IRQHandler
                0x00000000080042c0       0x2c src/touch_screen.o
                0x00000000080042c0                DMA1_Channel5_IRQHandler
 .text.SPI2_IRQHandler
                0x00000000080042ec       0xa4 src/touch_screen.o
                0x00000000080042ec                SPI2_IRQHandler
 .text.run_command
                0x0000000008004390       0x3c src/touch_screen.o
                0x0000000008004390                run_command
 .text.run_command_parameter
                0x00000000080043cc       0x40 src/touch_screen.o
                0x00000000080043cc                run_command_parameter
 .text.control_touch_buttons
                0x000000000800440c      0x164 src/touch_screen.o
                0x000000000800440c                control_touch_buttons
 .text.touch_screen_cs_low
                0x0000000008004570       0x14 src/touch_screen.o
                0x0000000008004570                touch_screen_cs_low
 .text.touch_screen_cs_high
                0x0000000008004584       0x14 src/touch_screen.o
                0x0000000008004584                touch_screen_cs_high
 .text.init_spi_2
                0x0000000008004598       0xcc src/touch_screen.o
                0x0000000008004598                init_spi_2
 .text.init_touch_screen
                0x0000000008004664        0x8 src/touch_screen.o
                0x0000000008004664                init_touch_screen
 .text.touch_screen_send_command
                0x000000000800466c       0x1c src/touch_screen.o
                0x000000000800466c                touch_screen_send_command
 .text.analize_data_from_touch_screen
                0x0000000008004688       0x54 src/touch_screen.o
                0x0000000008004688                analize_data_from_touch_screen
 .text.Reset_Handler
                0x00000000080046dc       0x50 startup/startup_stm32.o
                0x00000000080046dc                Reset_Handler
 .text.Default_Handler
                0x000000000800472c        0x2 startup/startup_stm32.o
                0x000000000800472c                EXTI2_IRQHandler
                0x000000000800472c                TIM8_TRG_COM_IRQHandler
                0x000000000800472c                TIM8_CC_IRQHandler
                0x000000000800472c                DebugMon_Handler
                0x000000000800472c                HardFault_Handler
                0x000000000800472c                TIM6_IRQHandler
                0x000000000800472c                PVD_IRQHandler
                0x000000000800472c                SDIO_IRQHandler
                0x000000000800472c                PendSV_Handler
                0x000000000800472c                NMI_Handler
                0x000000000800472c                EXTI3_IRQHandler
                0x000000000800472c                USB_HP_CAN_TX_IRQHandler
                0x000000000800472c                I2C2_EV_IRQHandler
                0x000000000800472c                UsageFault_Handler
                0x000000000800472c                ADC1_2_IRQHandler
                0x000000000800472c                SPI1_IRQHandler
                0x000000000800472c                CAN_SCE_IRQHandler
                0x000000000800472c                TAMPER_IRQHandler
                0x000000000800472c                TIM8_UP_IRQHandler
                0x000000000800472c                DMA2_Channel2_IRQHandler
                0x000000000800472c                USART3_IRQHandler
                0x000000000800472c                DMA1_Channel7_IRQHandler
                0x000000000800472c                UART5_IRQHandler
                0x000000000800472c                ADC3_IRQHandler
                0x000000000800472c                TIM4_IRQHandler
                0x000000000800472c                CAN_RX1_IRQHandler
                0x000000000800472c                DMA2_Channel1_IRQHandler
                0x000000000800472c                I2C1_EV_IRQHandler
                0x000000000800472c                DMA1_Channel6_IRQHandler
                0x000000000800472c                UART4_IRQHandler
                0x000000000800472c                TIM3_IRQHandler
                0x000000000800472c                RCC_IRQHandler
                0x000000000800472c                TIM1_TRG_COM_IRQHandler
                0x000000000800472c                DMA1_Channel1_IRQHandler
                0x000000000800472c                Default_Handler
                0x000000000800472c                EXTI15_10_IRQHandler
                0x000000000800472c                TIM7_IRQHandler
                0x000000000800472c                TIM5_IRQHandler
                0x000000000800472c                EXTI9_5_IRQHandler
                0x000000000800472c                USB_LP_CAN_RX0_IRQHandler
                0x000000000800472c                MemManage_Handler
                0x000000000800472c                SVC_Handler
                0x000000000800472c                EXTI4_IRQHandler
                0x000000000800472c                FSMC_IRQHandler
                0x000000000800472c                TIM1_UP_IRQHandler
                0x000000000800472c                WWDG_IRQHandler
                0x000000000800472c                TIM1_BRK_IRQHandler
                0x000000000800472c                EXTI1_IRQHandler
                0x000000000800472c                DMA2_Channel4_5_IRQHandler
                0x000000000800472c                USART2_IRQHandler
                0x000000000800472c                I2C2_ER_IRQHandler
                0x000000000800472c                TIM8_BRK_IRQHandler
                0x000000000800472c                FLASH_IRQHandler
                0x000000000800472c                BusFault_Handler
                0x000000000800472c                SPI3_IRQHandler
                0x000000000800472c                I2C1_ER_IRQHandler
                0x000000000800472c                DMA2_Channel3_IRQHandler
 *fill*         0x000000000800472e        0x2 
 .text.__errno  0x0000000008004730        0xc /home/gwarchol/Ac6/SystemWorkbench/plugins/fr.ac6.mcu.externaltools.arm-none.linux64_1.15.0.201708311556/tools/compiler/bin/../lib/gcc/arm-none-eabi/6.3.1/../../../../arm-none-eabi/lib/thumb/v7-m/libc_nano.a(lib_a-errno.o)
                0x0000000008004730                __errno
 .text._cleanup_r
                0x000000000800473c        0xc /home/gwarchol/Ac6/SystemWorkbench/plugins/fr.ac6.mcu.externaltools.arm-none.linux64_1.15.0.201708311556/tools/compiler/bin/../lib/gcc/arm-none-eabi/6.3.1/../../../../arm-none-eabi/lib/thumb/v7-m/libc_nano.a(lib_a-findfp.o)
                0x000000000800473c                _cleanup_r
 .text.std.isra.0
                0x0000000008004748       0x48 /home/gwarchol/Ac6/SystemWorkbench/plugins/fr.ac6.mcu.externaltools.arm-none.linux64_1.15.0.201708311556/tools/compiler/bin/../lib/gcc/arm-none-eabi/6.3.1/../../../../arm-none-eabi/lib/thumb/v7-m/libc_nano.a(lib_a-findfp.o)
 .text.__sfmoreglue
                0x0000000008004790       0x2c /home/gwarchol/Ac6/SystemWorkbench/plugins/fr.ac6.mcu.externaltools.arm-none.linux64_1.15.0.201708311556/tools/compiler/bin/../lib/gcc/arm-none-eabi/6.3.1/../../../../arm-none-eabi/lib/thumb/v7-m/libc_nano.a(lib_a-findfp.o)
                0x0000000008004790                __sfmoreglue
 .text.__sinit  0x00000000080047bc       0x60 /home/gwarchol/Ac6/SystemWorkbench/plugins/fr.ac6.mcu.externaltools.arm-none.linux64_1.15.0.201708311556/tools/compiler/bin/../lib/gcc/arm-none-eabi/6.3.1/../../../../arm-none-eabi/lib/thumb/v7-m/libc_nano.a(lib_a-findfp.o)
                0x00000000080047bc                __sinit
 .text.__sfp    0x000000000800481c       0x78 /home/gwarchol/Ac6/SystemWorkbench/plugins/fr.ac6.mcu.externaltools.arm-none.linux64_1.15.0.201708311556/tools/compiler/bin/../lib/gcc/arm-none-eabi/6.3.1/../../../../arm-none-eabi/lib/thumb/v7-m/libc_nano.a(lib_a-findfp.o)
                0x000000000800481c                __sfp
 .text._fwalk_reent
                0x0000000008004894       0x3c /home/gwarchol/Ac6/SystemWorkbench/plugins/fr.ac6.mcu.externaltools.arm-none.linux64_1.15.0.201708311556/tools/compiler/bin/../lib/gcc/arm-none-eabi/6.3.1/../../../../arm-none-eabi/lib/thumb/v7-m/libc_nano.a(lib_a-fwalk.o)
                0x0000000008004894                _fwalk_reent
 .text._malloc_r
                0x00000000080048d0       0xbc /home/gwarchol/Ac6/SystemWorkbench/plugins/fr.ac6.mcu.externaltools.arm-none.linux64_1.15.0.201708311556/tools/compiler/bin/../lib/gcc/arm-none-eabi/6.3.1/../../../../arm-none-eabi/lib/thumb/v7-m/libc_nano.a(lib_a-nano-mallocr.o)
                0x00000000080048d0                _malloc_r
 .text.printf   0x000000000800498c       0x30 /home/gwarchol/Ac6/SystemWorkbench/plugins/fr.ac6.mcu.externaltools.arm-none.linux64_1.15.0.201708311556/tools/compiler/bin/../lib/gcc/arm-none-eabi/6.3.1/../../../../arm-none-eabi/lib/thumb/v7-m/libc_nano.a(lib_a-printf.o)
                0x000000000800498c                printf
                0x000000000800498c                iprintf
 .text.putchar  0x00000000080049bc       0x28 /home/gwarchol/Ac6/SystemWorkbench/plugins/fr.ac6.mcu.externaltools.arm-none.linux64_1.15.0.201708311556/tools/compiler/bin/../lib/gcc/arm-none-eabi/6.3.1/../../../../arm-none-eabi/lib/thumb/v7-m/libc_nano.a(lib_a-putchar.o)
                0x00000000080049bc                putchar
 .text._puts_r  0x00000000080049e4       0xb8 /home/gwarchol/Ac6/SystemWorkbench/plugins/fr.ac6.mcu.externaltools.arm-none.linux64_1.15.0.201708311556/tools/compiler/bin/../lib/gcc/arm-none-eabi/6.3.1/../../../../arm-none-eabi/lib/thumb/v7-m/libc_nano.a(lib_a-puts.o)
                0x00000000080049e4                _puts_r
 .text.puts     0x0000000008004a9c       0x10 /home/gwarchol/Ac6/SystemWorkbench/plugins/fr.ac6.mcu.externaltools.arm-none.linux64_1.15.0.201708311556/tools/compiler/bin/../lib/gcc/arm-none-eabi/6.3.1/../../../../arm-none-eabi/lib/thumb/v7-m/libc_nano.a(lib_a-puts.o)
                0x0000000008004a9c                puts
 .text._sbrk_r  0x0000000008004aac       0x20 /home/gwarchol/Ac6/SystemWorkbench/plugins/fr.ac6.mcu.externaltools.arm-none.linux64_1.15.0.201708311556/tools/compiler/bin/../lib/gcc/arm-none-eabi/6.3.1/../../../../arm-none-eabi/lib/thumb/v7-m/libc_nano.a(lib_a-sbrkr.o)
                0x0000000008004aac                _sbrk_r
 .text.sprintf  0x0000000008004acc       0x48 /home/gwarchol/Ac6/SystemWorkbench/plugins/fr.ac6.mcu.externaltools.arm-none.linux64_1.15.0.201708311556/tools/compiler/bin/../lib/gcc/arm-none-eabi/6.3.1/../../../../arm-none-eabi/lib/thumb/v7-m/libc_nano.a(lib_a-sprintf.o)
                0x0000000008004acc                sprintf
                0x0000000008004acc                siprintf
 .text.__sread  0x0000000008004b14       0x22 /home/gwarchol/Ac6/SystemWorkbench/plugins/fr.ac6.mcu.externaltools.arm-none.linux64_1.15.0.201708311556/tools/compiler/bin/../lib/gcc/arm-none-eabi/6.3.1/../../../../arm-none-eabi/lib/thumb/v7-m/libc_nano.a(lib_a-stdio.o)
                0x0000000008004b14                __sread
 .text.__swrite
                0x0000000008004b36       0x38 /home/gwarchol/Ac6/SystemWorkbench/plugins/fr.ac6.mcu.externaltools.arm-none.linux64_1.15.0.201708311556/tools/compiler/bin/../lib/gcc/arm-none-eabi/6.3.1/../../../../arm-none-eabi/lib/thumb/v7-m/libc_nano.a(lib_a-stdio.o)
                0x0000000008004b36                __swrite
 .text.__sseek  0x0000000008004b6e       0x24 /home/gwarchol/Ac6/SystemWorkbench/plugins/fr.ac6.mcu.externaltools.arm-none.linux64_1.15.0.201708311556/tools/compiler/bin/../lib/gcc/arm-none-eabi/6.3.1/../../../../arm-none-eabi/lib/thumb/v7-m/libc_nano.a(lib_a-stdio.o)
                0x0000000008004b6e                __sseek
 .text.__sclose
                0x0000000008004b92        0x8 /home/gwarchol/Ac6/SystemWorkbench/plugins/fr.ac6.mcu.externaltools.arm-none.linux64_1.15.0.201708311556/tools/compiler/bin/../lib/gcc/arm-none-eabi/6.3.1/../../../../arm-none-eabi/lib/thumb/v7-m/libc_nano.a(lib_a-stdio.o)
                0x0000000008004b92                __sclose
 *fill*         0x0000000008004b9a        0x2 
 .text.__swbuf_r
                0x0000000008004b9c       0xa4 /home/gwarchol/Ac6/SystemWorkbench/plugins/fr.ac6.mcu.externaltools.arm-none.linux64_1.15.0.201708311556/tools/compiler/bin/../lib/gcc/arm-none-eabi/6.3.1/../../../../arm-none-eabi/lib/thumb/v7-m/libc_nano.a(lib_a-wbuf.o)
                0x0000000008004b9c                __swbuf_r
 .text._write_r
                0x0000000008004c40       0x24 /home/gwarchol/Ac6/SystemWorkbench/plugins/fr.ac6.mcu.externaltools.arm-none.linux64_1.15.0.201708311556/tools/compiler/bin/../lib/gcc/arm-none-eabi/6.3.1/../../../../arm-none-eabi/lib/thumb/v7-m/libc_nano.a(lib_a-writer.o)
                0x0000000008004c40                _write_r
 .text.__swsetup_r
                0x0000000008004c64       0xdc /home/gwarchol/Ac6/SystemWorkbench/plugins/fr.ac6.mcu.externaltools.arm-none.linux64_1.15.0.201708311556/tools/compiler/bin/../lib/gcc/arm-none-eabi/6.3.1/../../../../arm-none-eabi/lib/thumb/v7-m/libc_nano.a(lib_a-wsetup.o)
                0x0000000008004c64                __swsetup_r
 .text._close_r
                0x0000000008004d40       0x20 /home/gwarchol/Ac6/SystemWorkbench/plugins/fr.ac6.mcu.externaltools.arm-none.linux64_1.15.0.201708311556/tools/compiler/bin/../lib/gcc/arm-none-eabi/6.3.1/../../../../arm-none-eabi/lib/thumb/v7-m/libc_nano.a(lib_a-closer.o)
                0x0000000008004d40                _close_r
 .text.__sflush_r
                0x0000000008004d60      0x110 /home/gwarchol/Ac6/SystemWorkbench/plugins/fr.ac6.mcu.externaltools.arm-none.linux64_1.15.0.201708311556/tools/compiler/bin/../lib/gcc/arm-none-eabi/6.3.1/../../../../arm-none-eabi/lib/thumb/v7-m/libc_nano.a(lib_a-fflush.o)
                0x0000000008004d60                __sflush_r
 .text._fflush_r
                0x0000000008004e70       0x54 /home/gwarchol/Ac6/SystemWorkbench/plugins/fr.ac6.mcu.externaltools.arm-none.linux64_1.15.0.201708311556/tools/compiler/bin/../lib/gcc/arm-none-eabi/6.3.1/../../../../arm-none-eabi/lib/thumb/v7-m/libc_nano.a(lib_a-fflush.o)
                0x0000000008004e70                _fflush_r
 .text._lseek_r
                0x0000000008004ec4       0x24 /home/gwarchol/Ac6/SystemWorkbench/plugins/fr.ac6.mcu.externaltools.arm-none.linux64_1.15.0.201708311556/tools/compiler/bin/../lib/gcc/arm-none-eabi/6.3.1/../../../../arm-none-eabi/lib/thumb/v7-m/libc_nano.a(lib_a-lseekr.o)
                0x0000000008004ec4                _lseek_r
 .text.__swhatbuf_r
                0x0000000008004ee8       0x48 /home/gwarchol/Ac6/SystemWorkbench/plugins/fr.ac6.mcu.externaltools.arm-none.linux64_1.15.0.201708311556/tools/compiler/bin/../lib/gcc/arm-none-eabi/6.3.1/../../../../arm-none-eabi/lib/thumb/v7-m/libc_nano.a(lib_a-makebuf.o)
                0x0000000008004ee8                __swhatbuf_r
 .text.__smakebuf_r
                0x0000000008004f30       0x80 /home/gwarchol/Ac6/SystemWorkbench/plugins/fr.ac6.mcu.externaltools.arm-none.linux64_1.15.0.201708311556/tools/compiler/bin/../lib/gcc/arm-none-eabi/6.3.1/../../../../arm-none-eabi/lib/thumb/v7-m/libc_nano.a(lib_a-makebuf.o)
                0x0000000008004f30                __smakebuf_r
 .text.__malloc_lock
                0x0000000008004fb0        0x2 /home/gwarchol/Ac6/SystemWorkbench/plugins/fr.ac6.mcu.externaltools.arm-none.linux64_1.15.0.201708311556/tools/compiler/bin/../lib/gcc/arm-none-eabi/6.3.1/../../../../arm-none-eabi/lib/thumb/v7-m/libc_nano.a(lib_a-mlock.o)
                0x0000000008004fb0                __malloc_lock
 .text.__malloc_unlock
                0x0000000008004fb2        0x2 /home/gwarchol/Ac6/SystemWorkbench/plugins/fr.ac6.mcu.externaltools.arm-none.linux64_1.15.0.201708311556/tools/compiler/bin/../lib/gcc/arm-none-eabi/6.3.1/../../../../arm-none-eabi/lib/thumb/v7-m/libc_nano.a(lib_a-mlock.o)
                0x0000000008004fb2                __malloc_unlock
 .text._free_r  0x0000000008004fb4       0x98 /home/gwarchol/Ac6/SystemWorkbench/plugins/fr.ac6.mcu.externaltools.arm-none.linux64_1.15.0.201708311556/tools/compiler/bin/../lib/gcc/arm-none-eabi/6.3.1/../../../../arm-none-eabi/lib/thumb/v7-m/libc_nano.a(lib_a-nano-freer.o)
                0x0000000008004fb4                _free_r
 .text.__ssputs_r
                0x000000000800504c       0xb6 /home/gwarchol/Ac6/SystemWorkbench/plugins/fr.ac6.mcu.externaltools.arm-none.linux64_1.15.0.201708311556/tools/compiler/bin/../lib/gcc/arm-none-eabi/6.3.1/../../../../arm-none-eabi/lib/thumb/v7-m/libc_nano.a(lib_a-nano-svfprintf.o)
                0x000000000800504c                __ssputs_r
 *fill*         0x0000000008005102        0x2 
 .text._svfprintf_r
                0x0000000008005104      0x1e8 /home/gwarchol/Ac6/SystemWorkbench/plugins/fr.ac6.mcu.externaltools.arm-none.linux64_1.15.0.201708311556/tools/compiler/bin/../lib/gcc/arm-none-eabi/6.3.1/../../../../arm-none-eabi/lib/thumb/v7-m/libc_nano.a(lib_a-nano-svfprintf.o)
                0x0000000008005104                _svfprintf_r
                0x0000000008005104                _svfiprintf_r
 .text.__sfputc_r
                0x00000000080052ec       0x2c /home/gwarchol/Ac6/SystemWorkbench/plugins/fr.ac6.mcu.externaltools.arm-none.linux64_1.15.0.201708311556/tools/compiler/bin/../lib/gcc/arm-none-eabi/6.3.1/../../../../arm-none-eabi/lib/thumb/v7-m/libc_nano.a(lib_a-nano-vfprintf.o)
 .text.__sfputs_r
                0x0000000008005318       0x24 /home/gwarchol/Ac6/SystemWorkbench/plugins/fr.ac6.mcu.externaltools.arm-none.linux64_1.15.0.201708311556/tools/compiler/bin/../lib/gcc/arm-none-eabi/6.3.1/../../../../arm-none-eabi/lib/thumb/v7-m/libc_nano.a(lib_a-nano-vfprintf.o)
                0x0000000008005318                __sfputs_r
 .text._vfprintf_r
                0x000000000800533c      0x22c /home/gwarchol/Ac6/SystemWorkbench/plugins/fr.ac6.mcu.externaltools.arm-none.linux64_1.15.0.201708311556/tools/compiler/bin/../lib/gcc/arm-none-eabi/6.3.1/../../../../arm-none-eabi/lib/thumb/v7-m/libc_nano.a(lib_a-nano-vfprintf.o)
                0x000000000800533c                _vfiprintf_r
                0x000000000800533c                _vfprintf_r
 .text._printf_common
                0x0000000008005568       0xee /home/gwarchol/Ac6/SystemWorkbench/plugins/fr.ac6.mcu.externaltools.arm-none.linux64_1.15.0.201708311556/tools/compiler/bin/../lib/gcc/arm-none-eabi/6.3.1/../../../../arm-none-eabi/lib/thumb/v7-m/libc_nano.a(lib_a-nano-vfprintf_i.o)
                0x0000000008005568                _printf_common
 *fill*         0x0000000008005656        0x2 
 .text._printf_i
                0x0000000008005658      0x240 /home/gwarchol/Ac6/SystemWorkbench/plugins/fr.ac6.mcu.externaltools.arm-none.linux64_1.15.0.201708311556/tools/compiler/bin/../lib/gcc/arm-none-eabi/6.3.1/../../../../arm-none-eabi/lib/thumb/v7-m/libc_nano.a(lib_a-nano-vfprintf_i.o)
                0x0000000008005658                _printf_i
 .text._putc_r  0x0000000008005898       0x6c /home/gwarchol/Ac6/SystemWorkbench/plugins/fr.ac6.mcu.externaltools.arm-none.linux64_1.15.0.201708311556/tools/compiler/bin/../lib/gcc/arm-none-eabi/6.3.1/../../../../arm-none-eabi/lib/thumb/v7-m/libc_nano.a(lib_a-putc.o)
                0x0000000008005898                _putc_r
 .text._read_r  0x0000000008005904       0x24 /home/gwarchol/Ac6/SystemWorkbench/plugins/fr.ac6.mcu.externaltools.arm-none.linux64_1.15.0.201708311556/tools/compiler/bin/../lib/gcc/arm-none-eabi/6.3.1/../../../../arm-none-eabi/lib/thumb/v7-m/libc_nano.a(lib_a-readr.o)
                0x0000000008005904                _read_r
 .text._fstat_r
                0x0000000008005928       0x24 /home/gwarchol/Ac6/SystemWorkbench/plugins/fr.ac6.mcu.externaltools.arm-none.linux64_1.15.0.201708311556/tools/compiler/bin/../lib/gcc/arm-none-eabi/6.3.1/../../../../arm-none-eabi/lib/thumb/v7-m/libc_nano.a(lib_a-fstatr.o)
                0x0000000008005928                _fstat_r
 .text._isatty_r
                0x000000000800594c       0x20 /home/gwarchol/Ac6/SystemWorkbench/plugins/fr.ac6.mcu.externaltools.arm-none.linux64_1.15.0.201708311556/tools/compiler/bin/../lib/gcc/arm-none-eabi/6.3.1/../../../../arm-none-eabi/lib/thumb/v7-m/libc_nano.a(lib_a-isattyr.o)
                0x000000000800594c                _isatty_r
 .text.memchr   0x000000000800596c       0x1c /home/gwarchol/Ac6/SystemWorkbench/plugins/fr.ac6.mcu.externaltools.arm-none.linux64_1.15.0.201708311556/tools/compiler/bin/../lib/gcc/arm-none-eabi/6.3.1/../../../../arm-none-eabi/lib/thumb/v7-m/libc_nano.a(lib_a-memchr-stub.o)
                0x000000000800596c                memchr
 .text.memcpy   0x0000000008005988       0x16 /home/gwarchol/Ac6/SystemWorkbench/plugins/fr.ac6.mcu.externaltools.arm-none.linux64_1.15.0.201708311556/tools/compiler/bin/../lib/gcc/arm-none-eabi/6.3.1/../../../../arm-none-eabi/lib/thumb/v7-m/libc_nano.a(lib_a-memcpy-stub.o)
                0x0000000008005988                memcpy
 .text.memmove  0x000000000800599e       0x34 /home/gwarchol/Ac6/SystemWorkbench/plugins/fr.ac6.mcu.externaltools.arm-none.linux64_1.15.0.201708311556/tools/compiler/bin/../lib/gcc/arm-none-eabi/6.3.1/../../../../arm-none-eabi/lib/thumb/v7-m/libc_nano.a(lib_a-memmove.o)
                0x000000000800599e                memmove
 .text._realloc_r
                0x00000000080059d2       0x4c /home/gwarchol/Ac6/SystemWorkbench/plugins/fr.ac6.mcu.externaltools.arm-none.linux64_1.15.0.201708311556/tools/compiler/bin/../lib/gcc/arm-none-eabi/6.3.1/../../../../arm-none-eabi/lib/thumb/v7-m/libc_nano.a(lib_a-nano-reallocr.o)
                0x00000000080059d2                _realloc_r
 .text._malloc_usable_size_r
                0x0000000008005a1e       0x12 /home/gwarchol/Ac6/SystemWorkbench/plugins/fr.ac6.mcu.externaltools.arm-none.linux64_1.15.0.201708311556/tools/compiler/bin/../lib/gcc/arm-none-eabi/6.3.1/../../../../arm-none-eabi/lib/thumb/v7-m/libc_nano.a(lib_a-nano-msizer.o)
                0x0000000008005a1e                _malloc_usable_size_r
 *(.glue_7)
 .glue_7        0x0000000008005a30        0x0 linker stubs
 *(.glue_7t)
 .glue_7t       0x0000000008005a30        0x0 linker stubs
 *(.eh_frame)
 .eh_frame      0x0000000008005a30        0x0 /home/gwarchol/Ac6/SystemWorkbench/plugins/fr.ac6.mcu.externaltools.arm-none.linux64_1.15.0.201708311556/tools/compiler/bin/../lib/gcc/arm-none-eabi/6.3.1/thumb/v7-m/crtbegin.o
 *(.init)
 .init          0x0000000008005a30        0x4 /home/gwarchol/Ac6/SystemWorkbench/plugins/fr.ac6.mcu.externaltools.arm-none.linux64_1.15.0.201708311556/tools/compiler/bin/../lib/gcc/arm-none-eabi/6.3.1/thumb/v7-m/crti.o
                0x0000000008005a30                _init
 .init          0x0000000008005a34        0x8 /home/gwarchol/Ac6/SystemWorkbench/plugins/fr.ac6.mcu.externaltools.arm-none.linux64_1.15.0.201708311556/tools/compiler/bin/../lib/gcc/arm-none-eabi/6.3.1/thumb/v7-m/crtn.o
 *(.fini)
 .fini          0x0000000008005a3c        0x4 /home/gwarchol/Ac6/SystemWorkbench/plugins/fr.ac6.mcu.externaltools.arm-none.linux64_1.15.0.201708311556/tools/compiler/bin/../lib/gcc/arm-none-eabi/6.3.1/thumb/v7-m/crti.o
                0x0000000008005a3c                _fini
 .fini          0x0000000008005a40        0x8 /home/gwarchol/Ac6/SystemWorkbench/plugins/fr.ac6.mcu.externaltools.arm-none.linux64_1.15.0.201708311556/tools/compiler/bin/../lib/gcc/arm-none-eabi/6.3.1/thumb/v7-m/crtn.o
                0x0000000008005a48                . = ALIGN (0x4)
                0x0000000008005a48                _etext = .

.vfp11_veneer   0x0000000008005a48        0x0
 .vfp11_veneer  0x0000000008005a48        0x0 linker stubs

.v4_bx          0x0000000008005a48        0x0
 .v4_bx         0x0000000008005a48        0x0 linker stubs

.iplt           0x0000000008005a48        0x0
 .iplt          0x0000000008005a48        0x0 /home/gwarchol/Ac6/SystemWorkbench/plugins/fr.ac6.mcu.externaltools.arm-none.linux64_1.15.0.201708311556/tools/compiler/bin/../lib/gcc/arm-none-eabi/6.3.1/thumb/v7-m/crtbegin.o

.rodata         0x0000000008005a48      0x780
                0x0000000008005a48                . = ALIGN (0x4)
 *(.rodata)
 .rodata        0x0000000008005a48       0x63 lib/ILI9341/core.o
 *fill*         0x0000000008005aab        0x1 
 .rodata        0x0000000008005aac      0x500 lib/ILI9341/text.o
 *(.rodata*)
 .rodata._global_impure_ptr
                0x0000000008005fac        0x4 /home/gwarchol/Ac6/SystemWorkbench/plugins/fr.ac6.mcu.externaltools.arm-none.linux64_1.15.0.201708311556/tools/compiler/bin/../lib/gcc/arm-none-eabi/6.3.1/../../../../arm-none-eabi/lib/thumb/v7-m/libc_nano.a(lib_a-impure.o)
                0x0000000008005fac                _global_impure_ptr
 .rodata.initialise_monitor_handles.str1.1
                0x0000000008005fb0        0x4 /home/gwarchol/Ac6/SystemWorkbench/plugins/fr.ac6.mcu.externaltools.arm-none.linux64_1.15.0.201708311556/tools/compiler/bin/../lib/gcc/arm-none-eabi/6.3.1/../../../../arm-none-eabi/lib/thumb/v7-m/librdimon_nano.a(rdimon-syscalls.o)
 .rodata.str1.4
                0x0000000008005fb4       0x14 src/bmp180.o
 .rodata.str1.4
                0x0000000008005fc8        0x7 src/device_config.o
 *fill*         0x0000000008005fcf        0x1 
 .rodata.str1.4
                0x0000000008005fd0        0x6 src/main.o
 *fill*         0x0000000008005fd6        0x2 
 .rodata.str1.4
                0x0000000008005fd8       0xc2 src/menu.o
 *fill*         0x000000000800609a        0x2 
 .rodata.str1.4
                0x000000000800609c       0x98 src/rtc.o
                                         0x9c (size before relaxing)
 .rodata.__sf_fake_stderr
                0x0000000008006134       0x20 /home/gwarchol/Ac6/SystemWorkbench/plugins/fr.ac6.mcu.externaltools.arm-none.linux64_1.15.0.201708311556/tools/compiler/bin/../lib/gcc/arm-none-eabi/6.3.1/../../../../arm-none-eabi/lib/thumb/v7-m/libc_nano.a(lib_a-findfp.o)
                0x0000000008006134                __sf_fake_stderr
 .rodata.__sf_fake_stdin
                0x0000000008006154       0x20 /home/gwarchol/Ac6/SystemWorkbench/plugins/fr.ac6.mcu.externaltools.arm-none.linux64_1.15.0.201708311556/tools/compiler/bin/../lib/gcc/arm-none-eabi/6.3.1/../../../../arm-none-eabi/lib/thumb/v7-m/libc_nano.a(lib_a-findfp.o)
                0x0000000008006154                __sf_fake_stdin
 .rodata.__sf_fake_stdout
                0x0000000008006174       0x20 /home/gwarchol/Ac6/SystemWorkbench/plugins/fr.ac6.mcu.externaltools.arm-none.linux64_1.15.0.201708311556/tools/compiler/bin/../lib/gcc/arm-none-eabi/6.3.1/../../../../arm-none-eabi/lib/thumb/v7-m/libc_nano.a(lib_a-findfp.o)
                0x0000000008006174                __sf_fake_stdout
 .rodata._svfprintf_r.str1.1
                0x0000000008006194       0x11 /home/gwarchol/Ac6/SystemWorkbench/plugins/fr.ac6.mcu.externaltools.arm-none.linux64_1.15.0.201708311556/tools/compiler/bin/../lib/gcc/arm-none-eabi/6.3.1/../../../../arm-none-eabi/lib/thumb/v7-m/libc_nano.a(lib_a-nano-svfprintf.o)
 .rodata._vfprintf_r.str1.1
                0x00000000080061a5       0x11 /home/gwarchol/Ac6/SystemWorkbench/plugins/fr.ac6.mcu.externaltools.arm-none.linux64_1.15.0.201708311556/tools/compiler/bin/../lib/gcc/arm-none-eabi/6.3.1/../../../../arm-none-eabi/lib/thumb/v7-m/libc_nano.a(lib_a-nano-vfprintf.o)
 .rodata._printf_i.str1.1
                0x00000000080061a5       0x22 /home/gwarchol/Ac6/SystemWorkbench/plugins/fr.ac6.mcu.externaltools.arm-none.linux64_1.15.0.201708311556/tools/compiler/bin/../lib/gcc/arm-none-eabi/6.3.1/../../../../arm-none-eabi/lib/thumb/v7-m/libc_nano.a(lib_a-nano-vfprintf_i.o)
                0x00000000080061c8                . = ALIGN (0x4)
 *fill*         0x00000000080061c7        0x1 

.rel.dyn        0x00000000080061c8        0x0
 .rel.iplt      0x00000000080061c8        0x0 /home/gwarchol/Ac6/SystemWorkbench/plugins/fr.ac6.mcu.externaltools.arm-none.linux64_1.15.0.201708311556/tools/compiler/bin/../lib/gcc/arm-none-eabi/6.3.1/thumb/v7-m/crtbegin.o

.ARM.extab      0x00000000080061c8        0x0
                0x00000000080061c8                . = ALIGN (0x4)
 *(.ARM.extab* .gnu.linkonce.armextab.*)
                0x00000000080061c8                . = ALIGN (0x4)

.ARM            0x00000000080061c8        0x0
                0x00000000080061c8                . = ALIGN (0x4)
                0x00000000080061c8                __exidx_start = .
 *(.ARM.exidx*)
                0x00000000080061c8                __exidx_end = .
                0x00000000080061c8                . = ALIGN (0x4)

.preinit_array  0x00000000080061c8        0x0
                0x00000000080061c8                . = ALIGN (0x4)
                0x00000000080061c8                PROVIDE (__preinit_array_start, .)
 *(.preinit_array*)
                0x00000000080061c8                PROVIDE (__preinit_array_end, .)
                0x00000000080061c8                . = ALIGN (0x4)

.init_array     0x00000000080061c8        0x4
                0x00000000080061c8                . = ALIGN (0x4)
                0x00000000080061c8                PROVIDE (__init_array_start, .)
 *(SORT(.init_array.*))
 *(.init_array*)
 .init_array    0x00000000080061c8        0x4 /home/gwarchol/Ac6/SystemWorkbench/plugins/fr.ac6.mcu.externaltools.arm-none.linux64_1.15.0.201708311556/tools/compiler/bin/../lib/gcc/arm-none-eabi/6.3.1/thumb/v7-m/crtbegin.o
                0x00000000080061cc                PROVIDE (__init_array_end, .)
                0x00000000080061cc                . = ALIGN (0x4)

.fini_array     0x00000000080061cc        0x4
                0x00000000080061cc                . = ALIGN (0x4)
                [!provide]                        PROVIDE (__fini_array_start, .)
 *(SORT(.fini_array.*))
 *(.fini_array*)
 .fini_array    0x00000000080061cc        0x4 /home/gwarchol/Ac6/SystemWorkbench/plugins/fr.ac6.mcu.externaltools.arm-none.linux64_1.15.0.201708311556/tools/compiler/bin/../lib/gcc/arm-none-eabi/6.3.1/thumb/v7-m/crtbegin.o
                [!provide]                        PROVIDE (__fini_array_end, .)
                0x00000000080061d0                . = ALIGN (0x4)
                0x00000000080061d0                _sidata = LOADADDR (.data)

.data           0x0000000020000000       0xf0 load address 0x00000000080061d0
                0x0000000020000000                . = ALIGN (0x4)
                0x0000000020000000                _sdata = .
 *(.data)
 .data          0x0000000020000000       0x14 StdPeriph_Driver/src/stm32f10x_rcc.o
 .data          0x0000000020000014        0x4 lib/ILI9341/core.o
 .data          0x0000000020000018        0x6 lib/ILI9341/text.o
                0x0000000020000018                textSize
                0x0000000020000019                wrap
                0x000000002000001a                textColor
                0x000000002000001c                textBgColor
 *fill*         0x000000002000001e        0x2 
 .data          0x0000000020000020       0x17 src/DFPPlayer.o
                0x0000000020000020                mp3_cmd_buf
                0x000000002000002c                mp3_queue
                0x0000000020000036                mp3_folder
 *fill*         0x0000000020000037        0x1 
 .data          0x0000000020000038       0x20 src/menu.o
                0x000000002000003c                days
 .data          0x0000000020000058        0x8 src/scan_timer.o
                0x0000000020000058                CC1
                0x000000002000005a                CC2
                0x000000002000005c                CC3
                0x000000002000005e                CC4
 .data          0x0000000020000060       0x14 src/system_stm32f10x.o
                0x0000000020000060                SystemCoreClock
                0x0000000020000064                AHBPrescTable
 .data          0x0000000020000074        0x8 src/timers.o
                0x0000000020000074                CCR1_Val
                0x0000000020000076                CCR2_Val
                0x0000000020000078                CCR3_Val
                0x000000002000007a                CCR4_Val
 .data          0x000000002000007c        0xa src/touch_screen.o
                0x000000002000007c                touch_screen_state
                0x0000000020000080                touch_screeen_data_out
 *(.data*)
 *fill*         0x0000000020000086        0x2 
 .data._impure_ptr
                0x0000000020000088        0x4 /home/gwarchol/Ac6/SystemWorkbench/plugins/fr.ac6.mcu.externaltools.arm-none.linux64_1.15.0.201708311556/tools/compiler/bin/../lib/gcc/arm-none-eabi/6.3.1/../../../../arm-none-eabi/lib/thumb/v7-m/libc_nano.a(lib_a-impure.o)
                0x0000000020000088                _impure_ptr
 .data.impure_data
                0x000000002000008c       0x60 /home/gwarchol/Ac6/SystemWorkbench/plugins/fr.ac6.mcu.externaltools.arm-none.linux64_1.15.0.201708311556/tools/compiler/bin/../lib/gcc/arm-none-eabi/6.3.1/../../../../arm-none-eabi/lib/thumb/v7-m/libc_nano.a(lib_a-impure.o)
 .data.__heap_limit
                0x00000000200000ec        0x4 /home/gwarchol/Ac6/SystemWorkbench/plugins/fr.ac6.mcu.externaltools.arm-none.linux64_1.15.0.201708311556/tools/compiler/bin/../lib/gcc/arm-none-eabi/6.3.1/../../../../arm-none-eabi/lib/thumb/v7-m/librdimon_nano.a(rdimon-syscalls.o)
                0x00000000200000ec                __heap_limit
                0x00000000200000f0                . = ALIGN (0x4)
                0x00000000200000f0                _edata = .

.jcr            0x00000000200000f0        0x0 load address 0x00000000080062c0
 .jcr           0x00000000200000f0        0x0 /home/gwarchol/Ac6/SystemWorkbench/plugins/fr.ac6.mcu.externaltools.arm-none.linux64_1.15.0.201708311556/tools/compiler/bin/../lib/gcc/arm-none-eabi/6.3.1/thumb/v7-m/crtbegin.o

.igot.plt       0x00000000200000f0        0x0 load address 0x00000000080062c0
 .igot.plt      0x00000000200000f0        0x0 /home/gwarchol/Ac6/SystemWorkbench/plugins/fr.ac6.mcu.externaltools.arm-none.linux64_1.15.0.201708311556/tools/compiler/bin/../lib/gcc/arm-none-eabi/6.3.1/thumb/v7-m/crtbegin.o
                0x00000000200000f0                . = ALIGN (0x4)

.bss            0x00000000200000f0     0x1210 load address 0x00000000080062c0
                0x00000000200000f0                _sbss = .
                0x00000000200000f0                __bss_start__ = _sbss
 *(.bss)
 .bss           0x00000000200000f0       0x1c /home/gwarchol/Ac6/SystemWorkbench/plugins/fr.ac6.mcu.externaltools.arm-none.linux64_1.15.0.201708311556/tools/compiler/bin/../lib/gcc/arm-none-eabi/6.3.1/thumb/v7-m/crtbegin.o
 .bss           0x000000002000010c        0x4 lib/ILI9341/delay.o
                0x000000002000010c                tick
 .bss           0x0000000020000110        0x5 lib/ILI9341/text.o
                0x0000000020000110                cursorY
                0x0000000020000112                cursorX
                0x0000000020000114                _cp437
 *fill*         0x0000000020000115        0x3 
 .bss           0x0000000020000118       0x16 src/DFPPlayer.o
                0x0000000020000118                mp3_RX_Buf
                0x000000002000012c                mp3_flag
                0x000000002000012d                mp3_queue_id
 .bss           0x000000002000012e        0x8 src/menu.o
 *fill*         0x0000000020000136        0x2 
 .bss           0x0000000020000138        0xa src/rtc.o
                0x000000002000013c                total_rtc_ticks
                0x0000000020000141                x
 .bss           0x0000000020000142        0x5 src/scan_timer.o
                0x0000000020000142                _1_ms_flag
                0x0000000020000143                _10_ms_flag
                0x0000000020000144                _100_ms_flag
                0x0000000020000145                _1_s_flag
 *fill*         0x0000000020000147        0x1 
 .bss           0x0000000020000148        0x5 src/timers.o
                0x0000000020000148                PrescalerValue
                0x000000002000014a                capture
 *fill*         0x000000002000014d        0x3 
 .bss           0x0000000020000150        0x8 src/touch_screen.o
                0x0000000020000150                counting_period_filter_index
                0x0000000020000154                save_index
 *(.bss*)
 .bss.heap_end.6161
                0x0000000020000158        0x4 /home/gwarchol/Ac6/SystemWorkbench/plugins/fr.ac6.mcu.externaltools.arm-none.linux64_1.15.0.201708311556/tools/compiler/bin/../lib/gcc/arm-none-eabi/6.3.1/../../../../arm-none-eabi/lib/thumb/v7-m/librdimon_nano.a(rdimon-syscalls.o)
 .bss.monitor_stderr
                0x000000002000015c        0x4 /home/gwarchol/Ac6/SystemWorkbench/plugins/fr.ac6.mcu.externaltools.arm-none.linux64_1.15.0.201708311556/tools/compiler/bin/../lib/gcc/arm-none-eabi/6.3.1/../../../../arm-none-eabi/lib/thumb/v7-m/librdimon_nano.a(rdimon-syscalls.o)
 .bss.monitor_stdin
                0x0000000020000160        0x4 /home/gwarchol/Ac6/SystemWorkbench/plugins/fr.ac6.mcu.externaltools.arm-none.linux64_1.15.0.201708311556/tools/compiler/bin/../lib/gcc/arm-none-eabi/6.3.1/../../../../arm-none-eabi/lib/thumb/v7-m/librdimon_nano.a(rdimon-syscalls.o)
 .bss.monitor_stdout
                0x0000000020000164        0x4 /home/gwarchol/Ac6/SystemWorkbench/plugins/fr.ac6.mcu.externaltools.arm-none.linux64_1.15.0.201708311556/tools/compiler/bin/../lib/gcc/arm-none-eabi/6.3.1/../../../../arm-none-eabi/lib/thumb/v7-m/librdimon_nano.a(rdimon-syscalls.o)
 .bss.openfiles
                0x0000000020000168       0xa0 /home/gwarchol/Ac6/SystemWorkbench/plugins/fr.ac6.mcu.externaltools.arm-none.linux64_1.15.0.201708311556/tools/compiler/bin/../lib/gcc/arm-none-eabi/6.3.1/../../../../arm-none-eabi/lib/thumb/v7-m/librdimon_nano.a(rdimon-syscalls.o)
 .bss.__malloc_free_list
                0x0000000020000208        0x4 /home/gwarchol/Ac6/SystemWorkbench/plugins/fr.ac6.mcu.externaltools.arm-none.linux64_1.15.0.201708311556/tools/compiler/bin/../lib/gcc/arm-none-eabi/6.3.1/../../../../arm-none-eabi/lib/thumb/v7-m/libc_nano.a(lib_a-nano-mallocr.o)
                0x0000000020000208                __malloc_free_list
 .bss.__malloc_sbrk_start
                0x000000002000020c        0x4 /home/gwarchol/Ac6/SystemWorkbench/plugins/fr.ac6.mcu.externaltools.arm-none.linux64_1.15.0.201708311556/tools/compiler/bin/../lib/gcc/arm-none-eabi/6.3.1/../../../../arm-none-eabi/lib/thumb/v7-m/libc_nano.a(lib_a-nano-mallocr.o)
                0x000000002000020c                __malloc_sbrk_start
 *(COMMON)
 COMMON         0x0000000020000210     0x102c lib/ILI9341/dma.o
                0x0000000020000210                dmaStructure
                0x000000002000023c                dmaBuffer
 COMMON         0x000000002000123c        0x2 src/DFPPlayer.o
                0x000000002000123c                mp3_RXc
                0x000000002000123d                mp3_RXi
 *fill*         0x000000002000123e        0x2 
 COMMON         0x0000000020001240       0x2c src/bmp180.o
                0x0000000020001240                u_temp
                0x0000000020001244                u_pres
                0x0000000020001248                rt
                0x000000002000124c                rp
                0x0000000020001250                BMP180_Calibration
 COMMON         0x000000002000126c        0x4 src/device_config.o
                0x000000002000126c                GPIO_InitStruct
 COMMON         0x0000000020001270       0x1a src/menu.o
                0x0000000020001270                preassure_str
                0x0000000020001280                temperature_str
 *fill*         0x000000002000128a        0x2 
 COMMON         0x000000002000128c       0x16 src/rtc.o
                0x000000002000128c                s_DateStructVar
                0x0000000020001290                s_TimeStructVar
                0x0000000020001298                s_AlarmDateStructVar
                0x000000002000129c                s_AlarmStructVar
 *fill*         0x00000000200012a2        0x2 
 COMMON         0x00000000200012a4       0x58 src/touch_screen.o
                0x00000000200012a4                touch_screeen_data_in
                0x00000000200012ac                GPIO_InitStructure
                0x00000000200012b0                SPI_InitStructure
                0x00000000200012c4                touch_data
                0x00000000200012c8                touch_screeen_data
                0x00000000200012d0                DMA_InitStructure
 COMMON         0x00000000200012fc        0x4 /home/gwarchol/Ac6/SystemWorkbench/plugins/fr.ac6.mcu.externaltools.arm-none.linux64_1.15.0.201708311556/tools/compiler/bin/../lib/gcc/arm-none-eabi/6.3.1/../../../../arm-none-eabi/lib/thumb/v7-m/libc_nano.a(lib_a-reent.o)
                0x00000000200012fc                errno
                0x0000000020001300                . = ALIGN (0x4)
                0x0000000020001300                _ebss = .
                0x0000000020001300                __bss_end__ = _ebss

._user_heap_stack
                0x0000000020001300      0x400 load address 0x00000000080062c0
                0x0000000020001300                . = ALIGN (0x8)
                0x0000000020001300                PROVIDE (end, .)
                [!provide]                        PROVIDE (_end, .)
                0x0000000020001300                . = (. + _Min_Heap_Size)
                0x0000000020001700                . = (. + _Min_Stack_Size)
 *fill*         0x0000000020001300      0x400 
                0x0000000020001700                . = ALIGN (0x8)

/DISCARD/
 libc.a(*)
 libm.a(*)
 libgcc.a(*)

.ARM.attributes
                0x0000000000000000       0x29
 *(.ARM.attributes)
 .ARM.attributes
                0x0000000000000000       0x1d /home/gwarchol/Ac6/SystemWorkbench/plugins/fr.ac6.mcu.externaltools.arm-none.linux64_1.15.0.201708311556/tools/compiler/bin/../lib/gcc/arm-none-eabi/6.3.1/thumb/v7-m/crti.o
 .ARM.attributes
                0x000000000000001d       0x2d /home/gwarchol/Ac6/SystemWorkbench/plugins/fr.ac6.mcu.externaltools.arm-none.linux64_1.15.0.201708311556/tools/compiler/bin/../lib/gcc/arm-none-eabi/6.3.1/thumb/v7-m/crtbegin.o
 .ARM.attributes
                0x000000000000004a       0x2d /home/gwarchol/Ac6/SystemWorkbench/plugins/fr.ac6.mcu.externaltools.arm-none.linux64_1.15.0.201708311556/tools/compiler/bin/../lib/gcc/arm-none-eabi/6.3.1/../../../../arm-none-eabi/lib/thumb/v7-m/libc_nano.a(lib_a-impure.o)
 .ARM.attributes
                0x0000000000000077       0x2d /home/gwarchol/Ac6/SystemWorkbench/plugins/fr.ac6.mcu.externaltools.arm-none.linux64_1.15.0.201708311556/tools/compiler/bin/../lib/gcc/arm-none-eabi/6.3.1/../../../../arm-none-eabi/lib/thumb/v7-m/libc_nano.a(lib_a-init.o)
 .ARM.attributes
                0x00000000000000a4       0x2d /home/gwarchol/Ac6/SystemWorkbench/plugins/fr.ac6.mcu.externaltools.arm-none.linux64_1.15.0.201708311556/tools/compiler/bin/../lib/gcc/arm-none-eabi/6.3.1/../../../../arm-none-eabi/lib/thumb/v7-m/libc_nano.a(lib_a-memset.o)
 .ARM.attributes
                0x00000000000000d1       0x2d /home/gwarchol/Ac6/SystemWorkbench/plugins/fr.ac6.mcu.externaltools.arm-none.linux64_1.15.0.201708311556/tools/compiler/bin/../lib/gcc/arm-none-eabi/6.3.1/../../../../arm-none-eabi/lib/thumb/v7-m/librdimon_nano.a(rdimon-syscalls.o)
 .ARM.attributes
                0x00000000000000fe       0x33 StdPeriph_Driver/src/misc.o
 .ARM.attributes
                0x0000000000000131       0x33 StdPeriph_Driver/src/stm32f10x_bkp.o
 .ARM.attributes
                0x0000000000000164       0x33 StdPeriph_Driver/src/stm32f10x_dbgmcu.o
 .ARM.attributes
                0x0000000000000197       0x33 StdPeriph_Driver/src/stm32f10x_dma.o
 .ARM.attributes
                0x00000000000001ca       0x33 StdPeriph_Driver/src/stm32f10x_exti.o
 .ARM.attributes
                0x00000000000001fd       0x33 StdPeriph_Driver/src/stm32f10x_flash.o
 .ARM.attributes
                0x0000000000000230       0x33 StdPeriph_Driver/src/stm32f10x_gpio.o
 .ARM.attributes
                0x0000000000000263       0x33 StdPeriph_Driver/src/stm32f10x_i2c.o
 .ARM.attributes
                0x0000000000000296       0x33 StdPeriph_Driver/src/stm32f10x_pwr.o
 .ARM.attributes
                0x00000000000002c9       0x33 StdPeriph_Driver/src/stm32f10x_rcc.o
 .ARM.attributes
                0x00000000000002fc       0x33 StdPeriph_Driver/src/stm32f10x_rtc.o
 .ARM.attributes
                0x000000000000032f       0x33 StdPeriph_Driver/src/stm32f10x_spi.o
 .ARM.attributes
                0x0000000000000362       0x33 StdPeriph_Driver/src/stm32f10x_tim.o
 .ARM.attributes
                0x0000000000000395       0x33 StdPeriph_Driver/src/stm32f10x_usart.o
 .ARM.attributes
                0x00000000000003c8       0x33 lib/ILI9341/core.o
 .ARM.attributes
                0x00000000000003fb       0x33 lib/ILI9341/delay.o
 .ARM.attributes
                0x000000000000042e       0x33 lib/ILI9341/dma.o
 .ARM.attributes
                0x0000000000000461       0x33 lib/ILI9341/graph.o
 .ARM.attributes
                0x0000000000000494       0x33 lib/ILI9341/text.o
 .ARM.attributes
                0x00000000000004c7       0x33 src/DFPPlayer.o
 .ARM.attributes
                0x00000000000004fa       0x33 src/bmp180.o
 .ARM.attributes
                0x000000000000052d       0x33 src/device_config.o
 .ARM.attributes
                0x0000000000000560       0x33 src/main.o
 .ARM.attributes
                0x0000000000000593       0x33 src/menu.o
 .ARM.attributes
                0x00000000000005c6       0x33 src/rtc.o
 .ARM.attributes
                0x00000000000005f9       0x33 src/scan_timer.o
 .ARM.attributes
                0x000000000000062c       0x33 src/system_stm32f10x.o
 .ARM.attributes
                0x000000000000065f       0x33 src/timers.o
 .ARM.attributes
                0x0000000000000692       0x33 src/touch_screen.o
 .ARM.attributes
                0x00000000000006c5       0x21 startup/startup_stm32.o
 .ARM.attributes
                0x00000000000006e6       0x2d /home/gwarchol/Ac6/SystemWorkbench/plugins/fr.ac6.mcu.externaltools.arm-none.linux64_1.15.0.201708311556/tools/compiler/bin/../lib/gcc/arm-none-eabi/6.3.1/../../../../arm-none-eabi/lib/thumb/v7-m/libc_nano.a(lib_a-errno.o)
 .ARM.attributes
                0x0000000000000713       0x2d /home/gwarchol/Ac6/SystemWorkbench/plugins/fr.ac6.mcu.externaltools.arm-none.linux64_1.15.0.201708311556/tools/compiler/bin/../lib/gcc/arm-none-eabi/6.3.1/../../../../arm-none-eabi/lib/thumb/v7-m/libc_nano.a(lib_a-findfp.o)
 .ARM.attributes
                0x0000000000000740       0x2d /home/gwarchol/Ac6/SystemWorkbench/plugins/fr.ac6.mcu.externaltools.arm-none.linux64_1.15.0.201708311556/tools/compiler/bin/../lib/gcc/arm-none-eabi/6.3.1/../../../../arm-none-eabi/lib/thumb/v7-m/libc_nano.a(lib_a-fwalk.o)
 .ARM.attributes
                0x000000000000076d       0x2d /home/gwarchol/Ac6/SystemWorkbench/plugins/fr.ac6.mcu.externaltools.arm-none.linux64_1.15.0.201708311556/tools/compiler/bin/../lib/gcc/arm-none-eabi/6.3.1/../../../../arm-none-eabi/lib/thumb/v7-m/libc_nano.a(lib_a-nano-mallocr.o)
 .ARM.attributes
                0x000000000000079a       0x2d /home/gwarchol/Ac6/SystemWorkbench/plugins/fr.ac6.mcu.externaltools.arm-none.linux64_1.15.0.201708311556/tools/compiler/bin/../lib/gcc/arm-none-eabi/6.3.1/../../../../arm-none-eabi/lib/thumb/v7-m/libc_nano.a(lib_a-printf.o)
 .ARM.attributes
                0x00000000000007c7       0x2d /home/gwarchol/Ac6/SystemWorkbench/plugins/fr.ac6.mcu.externaltools.arm-none.linux64_1.15.0.201708311556/tools/compiler/bin/../lib/gcc/arm-none-eabi/6.3.1/../../../../arm-none-eabi/lib/thumb/v7-m/libc_nano.a(lib_a-putchar.o)
 .ARM.attributes
                0x00000000000007f4       0x2d /home/gwarchol/Ac6/SystemWorkbench/plugins/fr.ac6.mcu.externaltools.arm-none.linux64_1.15.0.201708311556/tools/compiler/bin/../lib/gcc/arm-none-eabi/6.3.1/../../../../arm-none-eabi/lib/thumb/v7-m/libc_nano.a(lib_a-puts.o)
 .ARM.attributes
                0x0000000000000821       0x2d /home/gwarchol/Ac6/SystemWorkbench/plugins/fr.ac6.mcu.externaltools.arm-none.linux64_1.15.0.201708311556/tools/compiler/bin/../lib/gcc/arm-none-eabi/6.3.1/../../../../arm-none-eabi/lib/thumb/v7-m/libc_nano.a(lib_a-sbrkr.o)
 .ARM.attributes
                0x000000000000084e       0x2d /home/gwarchol/Ac6/SystemWorkbench/plugins/fr.ac6.mcu.externaltools.arm-none.linux64_1.15.0.201708311556/tools/compiler/bin/../lib/gcc/arm-none-eabi/6.3.1/../../../../arm-none-eabi/lib/thumb/v7-m/libc_nano.a(lib_a-sprintf.o)
 .ARM.attributes
                0x000000000000087b       0x2d /home/gwarchol/Ac6/SystemWorkbench/plugins/fr.ac6.mcu.externaltools.arm-none.linux64_1.15.0.201708311556/tools/compiler/bin/../lib/gcc/arm-none-eabi/6.3.1/../../../../arm-none-eabi/lib/thumb/v7-m/libc_nano.a(lib_a-stdio.o)
 .ARM.attributes
                0x00000000000008a8       0x2d /home/gwarchol/Ac6/SystemWorkbench/plugins/fr.ac6.mcu.externaltools.arm-none.linux64_1.15.0.201708311556/tools/compiler/bin/../lib/gcc/arm-none-eabi/6.3.1/../../../../arm-none-eabi/lib/thumb/v7-m/libc_nano.a(lib_a-wbuf.o)
 .ARM.attributes
                0x00000000000008d5       0x2d /home/gwarchol/Ac6/SystemWorkbench/plugins/fr.ac6.mcu.externaltools.arm-none.linux64_1.15.0.201708311556/tools/compiler/bin/../lib/gcc/arm-none-eabi/6.3.1/../../../../arm-none-eabi/lib/thumb/v7-m/libc_nano.a(lib_a-writer.o)
 .ARM.attributes
                0x0000000000000902       0x2d /home/gwarchol/Ac6/SystemWorkbench/plugins/fr.ac6.mcu.externaltools.arm-none.linux64_1.15.0.201708311556/tools/compiler/bin/../lib/gcc/arm-none-eabi/6.3.1/../../../../arm-none-eabi/lib/thumb/v7-m/libc_nano.a(lib_a-wsetup.o)
 .ARM.attributes
                0x000000000000092f       0x2d /home/gwarchol/Ac6/SystemWorkbench/plugins/fr.ac6.mcu.externaltools.arm-none.linux64_1.15.0.201708311556/tools/compiler/bin/../lib/gcc/arm-none-eabi/6.3.1/../../../../arm-none-eabi/lib/thumb/v7-m/libc_nano.a(lib_a-closer.o)
 .ARM.attributes
                0x000000000000095c       0x2d /home/gwarchol/Ac6/SystemWorkbench/plugins/fr.ac6.mcu.externaltools.arm-none.linux64_1.15.0.201708311556/tools/compiler/bin/../lib/gcc/arm-none-eabi/6.3.1/../../../../arm-none-eabi/lib/thumb/v7-m/libc_nano.a(lib_a-fflush.o)
 .ARM.attributes
                0x0000000000000989       0x2d /home/gwarchol/Ac6/SystemWorkbench/plugins/fr.ac6.mcu.externaltools.arm-none.linux64_1.15.0.201708311556/tools/compiler/bin/../lib/gcc/arm-none-eabi/6.3.1/../../../../arm-none-eabi/lib/thumb/v7-m/libc_nano.a(lib_a-lseekr.o)
 .ARM.attributes
                0x00000000000009b6       0x2d /home/gwarchol/Ac6/SystemWorkbench/plugins/fr.ac6.mcu.externaltools.arm-none.linux64_1.15.0.201708311556/tools/compiler/bin/../lib/gcc/arm-none-eabi/6.3.1/../../../../arm-none-eabi/lib/thumb/v7-m/libc_nano.a(lib_a-makebuf.o)
 .ARM.attributes
                0x00000000000009e3       0x2d /home/gwarchol/Ac6/SystemWorkbench/plugins/fr.ac6.mcu.externaltools.arm-none.linux64_1.15.0.201708311556/tools/compiler/bin/../lib/gcc/arm-none-eabi/6.3.1/../../../../arm-none-eabi/lib/thumb/v7-m/libc_nano.a(lib_a-mlock.o)
 .ARM.attributes
                0x0000000000000a10       0x2d /home/gwarchol/Ac6/SystemWorkbench/plugins/fr.ac6.mcu.externaltools.arm-none.linux64_1.15.0.201708311556/tools/compiler/bin/../lib/gcc/arm-none-eabi/6.3.1/../../../../arm-none-eabi/lib/thumb/v7-m/libc_nano.a(lib_a-nano-freer.o)
 .ARM.attributes
                0x0000000000000a3d       0x2d /home/gwarchol/Ac6/SystemWorkbench/plugins/fr.ac6.mcu.externaltools.arm-none.linux64_1.15.0.201708311556/tools/compiler/bin/../lib/gcc/arm-none-eabi/6.3.1/../../../../arm-none-eabi/lib/thumb/v7-m/libc_nano.a(lib_a-nano-svfprintf.o)
 .ARM.attributes
                0x0000000000000a6a       0x2d /home/gwarchol/Ac6/SystemWorkbench/plugins/fr.ac6.mcu.externaltools.arm-none.linux64_1.15.0.201708311556/tools/compiler/bin/../lib/gcc/arm-none-eabi/6.3.1/../../../../arm-none-eabi/lib/thumb/v7-m/libc_nano.a(lib_a-nano-vfprintf.o)
 .ARM.attributes
                0x0000000000000a97       0x2d /home/gwarchol/Ac6/SystemWorkbench/plugins/fr.ac6.mcu.externaltools.arm-none.linux64_1.15.0.201708311556/tools/compiler/bin/../lib/gcc/arm-none-eabi/6.3.1/../../../../arm-none-eabi/lib/thumb/v7-m/libc_nano.a(lib_a-nano-vfprintf_i.o)
 .ARM.attributes
                0x0000000000000ac4       0x2d /home/gwarchol/Ac6/SystemWorkbench/plugins/fr.ac6.mcu.externaltools.arm-none.linux64_1.15.0.201708311556/tools/compiler/bin/../lib/gcc/arm-none-eabi/6.3.1/../../../../arm-none-eabi/lib/thumb/v7-m/libc_nano.a(lib_a-putc.o)
 .ARM.attributes
                0x0000000000000af1       0x2d /home/gwarchol/Ac6/SystemWorkbench/plugins/fr.ac6.mcu.externaltools.arm-none.linux64_1.15.0.201708311556/tools/compiler/bin/../lib/gcc/arm-none-eabi/6.3.1/../../../../arm-none-eabi/lib/thumb/v7-m/libc_nano.a(lib_a-readr.o)
 .ARM.attributes
                0x0000000000000b1e       0x2d /home/gwarchol/Ac6/SystemWorkbench/plugins/fr.ac6.mcu.externaltools.arm-none.linux64_1.15.0.201708311556/tools/compiler/bin/../lib/gcc/arm-none-eabi/6.3.1/../../../../arm-none-eabi/lib/thumb/v7-m/libc_nano.a(lib_a-reent.o)
 .ARM.attributes
                0x0000000000000b4b       0x2d /home/gwarchol/Ac6/SystemWorkbench/plugins/fr.ac6.mcu.externaltools.arm-none.linux64_1.15.0.201708311556/tools/compiler/bin/../lib/gcc/arm-none-eabi/6.3.1/../../../../arm-none-eabi/lib/thumb/v7-m/libc_nano.a(lib_a-fstatr.o)
 .ARM.attributes
                0x0000000000000b78       0x2d /home/gwarchol/Ac6/SystemWorkbench/plugins/fr.ac6.mcu.externaltools.arm-none.linux64_1.15.0.201708311556/tools/compiler/bin/../lib/gcc/arm-none-eabi/6.3.1/../../../../arm-none-eabi/lib/thumb/v7-m/libc_nano.a(lib_a-isattyr.o)
 .ARM.attributes
                0x0000000000000ba5       0x2d /home/gwarchol/Ac6/SystemWorkbench/plugins/fr.ac6.mcu.externaltools.arm-none.linux64_1.15.0.201708311556/tools/compiler/bin/../lib/gcc/arm-none-eabi/6.3.1/../../../../arm-none-eabi/lib/thumb/v7-m/libc_nano.a(lib_a-memchr-stub.o)
 .ARM.attributes
                0x0000000000000bd2       0x2d /home/gwarchol/Ac6/SystemWorkbench/plugins/fr.ac6.mcu.externaltools.arm-none.linux64_1.15.0.201708311556/tools/compiler/bin/../lib/gcc/arm-none-eabi/6.3.1/../../../../arm-none-eabi/lib/thumb/v7-m/libc_nano.a(lib_a-memcpy-stub.o)
 .ARM.attributes
                0x0000000000000bff       0x2d /home/gwarchol/Ac6/SystemWorkbench/plugins/fr.ac6.mcu.externaltools.arm-none.linux64_1.15.0.201708311556/tools/compiler/bin/../lib/gcc/arm-none-eabi/6.3.1/../../../../arm-none-eabi/lib/thumb/v7-m/libc_nano.a(lib_a-memmove.o)
 .ARM.attributes
                0x0000000000000c2c       0x2d /home/gwarchol/Ac6/SystemWorkbench/plugins/fr.ac6.mcu.externaltools.arm-none.linux64_1.15.0.201708311556/tools/compiler/bin/../lib/gcc/arm-none-eabi/6.3.1/../../../../arm-none-eabi/lib/thumb/v7-m/libc_nano.a(lib_a-nano-reallocr.o)
 .ARM.attributes
                0x0000000000000c59       0x2d /home/gwarchol/Ac6/SystemWorkbench/plugins/fr.ac6.mcu.externaltools.arm-none.linux64_1.15.0.201708311556/tools/compiler/bin/../lib/gcc/arm-none-eabi/6.3.1/../../../../arm-none-eabi/lib/thumb/v7-m/libc_nano.a(lib_a-nano-msizer.o)
 .ARM.attributes
                0x0000000000000c86       0x1d /home/gwarchol/Ac6/SystemWorkbench/plugins/fr.ac6.mcu.externaltools.arm-none.linux64_1.15.0.201708311556/tools/compiler/bin/../lib/gcc/arm-none-eabi/6.3.1/thumb/v7-m/crtn.o
OUTPUT(clock_digital.elf elf32-littlearm)

.debug_frame    0x0000000000000000     0x36a4
 .debug_frame   0x0000000000000000       0x2c /home/gwarchol/Ac6/SystemWorkbench/plugins/fr.ac6.mcu.externaltools.arm-none.linux64_1.15.0.201708311556/tools/compiler/bin/../lib/gcc/arm-none-eabi/6.3.1/../../../../arm-none-eabi/lib/thumb/v7-m/libc_nano.a(lib_a-init.o)
 .debug_frame   0x000000000000002c       0x20 /home/gwarchol/Ac6/SystemWorkbench/plugins/fr.ac6.mcu.externaltools.arm-none.linux64_1.15.0.201708311556/tools/compiler/bin/../lib/gcc/arm-none-eabi/6.3.1/../../../../arm-none-eabi/lib/thumb/v7-m/libc_nano.a(lib_a-memset.o)
 .debug_frame   0x000000000000004c      0x33c /home/gwarchol/Ac6/SystemWorkbench/plugins/fr.ac6.mcu.externaltools.arm-none.linux64_1.15.0.201708311556/tools/compiler/bin/../lib/gcc/arm-none-eabi/6.3.1/../../../../arm-none-eabi/lib/thumb/v7-m/librdimon_nano.a(rdimon-syscalls.o)
 .debug_frame   0x0000000000000388       0x6c StdPeriph_Driver/src/misc.o
 .debug_frame   0x00000000000003f4       0xe8 StdPeriph_Driver/src/stm32f10x_bkp.o
 .debug_frame   0x00000000000004dc       0x40 StdPeriph_Driver/src/stm32f10x_dbgmcu.o
 .debug_frame   0x000000000000051c       0xcc StdPeriph_Driver/src/stm32f10x_dma.o
 .debug_frame   0x00000000000005e8       0xa0 StdPeriph_Driver/src/stm32f10x_exti.o
 .debug_frame   0x0000000000000688      0x254 StdPeriph_Driver/src/stm32f10x_flash.o
 .debug_frame   0x00000000000008dc      0x170 StdPeriph_Driver/src/stm32f10x_gpio.o
 .debug_frame   0x0000000000000a4c      0x254 StdPeriph_Driver/src/stm32f10x_i2c.o
 .debug_frame   0x0000000000000ca0       0xa8 StdPeriph_Driver/src/stm32f10x_pwr.o
 .debug_frame   0x0000000000000d48      0x22c StdPeriph_Driver/src/stm32f10x_rcc.o
 .debug_frame   0x0000000000000f74      0x118 StdPeriph_Driver/src/stm32f10x_rtc.o
 .debug_frame   0x000000000000108c      0x1bc StdPeriph_Driver/src/stm32f10x_spi.o
 .debug_frame   0x0000000000001248      0x6e0 StdPeriph_Driver/src/stm32f10x_tim.o
 .debug_frame   0x0000000000001928      0x224 StdPeriph_Driver/src/stm32f10x_usart.o
 .debug_frame   0x0000000000001b4c      0x11c lib/ILI9341/core.o
 .debug_frame   0x0000000000001c68       0x58 lib/ILI9341/delay.o
 .debug_frame   0x0000000000001cc0      0x1a0 lib/ILI9341/dma.o
 .debug_frame   0x0000000000001e60      0x1d0 lib/ILI9341/graph.o
 .debug_frame   0x0000000000002030      0x100 lib/ILI9341/text.o
 .debug_frame   0x0000000000002130       0xd0 src/DFPPlayer.o
 .debug_frame   0x0000000000002200      0x16c src/bmp180.o
 .debug_frame   0x000000000000236c       0xd0 src/device_config.o
 .debug_frame   0x000000000000243c       0x38 src/main.o
 .debug_frame   0x0000000000002474      0x19c src/menu.o
 .debug_frame   0x0000000000002610      0x3e0 src/rtc.o
 .debug_frame   0x00000000000029f0       0x7c src/scan_timer.o
 .debug_frame   0x0000000000002a6c       0x6c src/system_stm32f10x.o
 .debug_frame   0x0000000000002ad8       0x4c src/timers.o
 .debug_frame   0x0000000000002b24      0x1e8 src/touch_screen.o
 .debug_frame   0x0000000000002d0c       0x20 /home/gwarchol/Ac6/SystemWorkbench/plugins/fr.ac6.mcu.externaltools.arm-none.linux64_1.15.0.201708311556/tools/compiler/bin/../lib/gcc/arm-none-eabi/6.3.1/../../../../arm-none-eabi/lib/thumb/v7-m/libc_nano.a(lib_a-errno.o)
 .debug_frame   0x0000000000002d2c      0x11c /home/gwarchol/Ac6/SystemWorkbench/plugins/fr.ac6.mcu.externaltools.arm-none.linux64_1.15.0.201708311556/tools/compiler/bin/../lib/gcc/arm-none-eabi/6.3.1/../../../../arm-none-eabi/lib/thumb/v7-m/libc_nano.a(lib_a-findfp.o)
 .debug_frame   0x0000000000002e48       0x54 /home/gwarchol/Ac6/SystemWorkbench/plugins/fr.ac6.mcu.externaltools.arm-none.linux64_1.15.0.201708311556/tools/compiler/bin/../lib/gcc/arm-none-eabi/6.3.1/../../../../arm-none-eabi/lib/thumb/v7-m/libc_nano.a(lib_a-fwalk.o)
 .debug_frame   0x0000000000002e9c       0x2c /home/gwarchol/Ac6/SystemWorkbench/plugins/fr.ac6.mcu.externaltools.arm-none.linux64_1.15.0.201708311556/tools/compiler/bin/../lib/gcc/arm-none-eabi/6.3.1/../../../../arm-none-eabi/lib/thumb/v7-m/libc_nano.a(lib_a-nano-mallocr.o)
 .debug_frame   0x0000000000002ec8       0x74 /home/gwarchol/Ac6/SystemWorkbench/plugins/fr.ac6.mcu.externaltools.arm-none.linux64_1.15.0.201708311556/tools/compiler/bin/../lib/gcc/arm-none-eabi/6.3.1/../../../../arm-none-eabi/lib/thumb/v7-m/libc_nano.a(lib_a-printf.o)
 .debug_frame   0x0000000000002f3c       0x58 /home/gwarchol/Ac6/SystemWorkbench/plugins/fr.ac6.mcu.externaltools.arm-none.linux64_1.15.0.201708311556/tools/compiler/bin/../lib/gcc/arm-none-eabi/6.3.1/../../../../arm-none-eabi/lib/thumb/v7-m/libc_nano.a(lib_a-putchar.o)
 .debug_frame   0x0000000000002f94       0x3c /home/gwarchol/Ac6/SystemWorkbench/plugins/fr.ac6.mcu.externaltools.arm-none.linux64_1.15.0.201708311556/tools/compiler/bin/../lib/gcc/arm-none-eabi/6.3.1/../../../../arm-none-eabi/lib/thumb/v7-m/libc_nano.a(lib_a-puts.o)
 .debug_frame   0x0000000000002fd0       0x2c /home/gwarchol/Ac6/SystemWorkbench/plugins/fr.ac6.mcu.externaltools.arm-none.linux64_1.15.0.201708311556/tools/compiler/bin/../lib/gcc/arm-none-eabi/6.3.1/../../../../arm-none-eabi/lib/thumb/v7-m/libc_nano.a(lib_a-sbrkr.o)
 .debug_frame   0x0000000000002ffc       0x70 /home/gwarchol/Ac6/SystemWorkbench/plugins/fr.ac6.mcu.externaltools.arm-none.linux64_1.15.0.201708311556/tools/compiler/bin/../lib/gcc/arm-none-eabi/6.3.1/../../../../arm-none-eabi/lib/thumb/v7-m/libc_nano.a(lib_a-sprintf.o)
 .debug_frame   0x000000000000306c       0x88 /home/gwarchol/Ac6/SystemWorkbench/plugins/fr.ac6.mcu.externaltools.arm-none.linux64_1.15.0.201708311556/tools/compiler/bin/../lib/gcc/arm-none-eabi/6.3.1/../../../../arm-none-eabi/lib/thumb/v7-m/libc_nano.a(lib_a-stdio.o)
 .debug_frame   0x00000000000030f4       0x40 /home/gwarchol/Ac6/SystemWorkbench/plugins/fr.ac6.mcu.externaltools.arm-none.linux64_1.15.0.201708311556/tools/compiler/bin/../lib/gcc/arm-none-eabi/6.3.1/../../../../arm-none-eabi/lib/thumb/v7-m/libc_nano.a(lib_a-wbuf.o)
 .debug_frame   0x0000000000003134       0x2c /home/gwarchol/Ac6/SystemWorkbench/plugins/fr.ac6.mcu.externaltools.arm-none.linux64_1.15.0.201708311556/tools/compiler/bin/../lib/gcc/arm-none-eabi/6.3.1/../../../../arm-none-eabi/lib/thumb/v7-m/libc_nano.a(lib_a-writer.o)
 .debug_frame   0x0000000000003160       0x2c /home/gwarchol/Ac6/SystemWorkbench/plugins/fr.ac6.mcu.externaltools.arm-none.linux64_1.15.0.201708311556/tools/compiler/bin/../lib/gcc/arm-none-eabi/6.3.1/../../../../arm-none-eabi/lib/thumb/v7-m/libc_nano.a(lib_a-wsetup.o)
 .debug_frame   0x000000000000318c       0x2c /home/gwarchol/Ac6/SystemWorkbench/plugins/fr.ac6.mcu.externaltools.arm-none.linux64_1.15.0.201708311556/tools/compiler/bin/../lib/gcc/arm-none-eabi/6.3.1/../../../../arm-none-eabi/lib/thumb/v7-m/libc_nano.a(lib_a-closer.o)
 .debug_frame   0x00000000000031b8       0x68 /home/gwarchol/Ac6/SystemWorkbench/plugins/fr.ac6.mcu.externaltools.arm-none.linux64_1.15.0.201708311556/tools/compiler/bin/../lib/gcc/arm-none-eabi/6.3.1/../../../../arm-none-eabi/lib/thumb/v7-m/libc_nano.a(lib_a-fflush.o)
 .debug_frame   0x0000000000003220       0x2c /home/gwarchol/Ac6/SystemWorkbench/plugins/fr.ac6.mcu.externaltools.arm-none.linux64_1.15.0.201708311556/tools/compiler/bin/../lib/gcc/arm-none-eabi/6.3.1/../../../../arm-none-eabi/lib/thumb/v7-m/libc_nano.a(lib_a-lseekr.o)
 .debug_frame   0x000000000000324c       0x58 /home/gwarchol/Ac6/SystemWorkbench/plugins/fr.ac6.mcu.externaltools.arm-none.linux64_1.15.0.201708311556/tools/compiler/bin/../lib/gcc/arm-none-eabi/6.3.1/../../../../arm-none-eabi/lib/thumb/v7-m/libc_nano.a(lib_a-makebuf.o)
 .debug_frame   0x00000000000032a4       0x30 /home/gwarchol/Ac6/SystemWorkbench/plugins/fr.ac6.mcu.externaltools.arm-none.linux64_1.15.0.201708311556/tools/compiler/bin/../lib/gcc/arm-none-eabi/6.3.1/../../../../arm-none-eabi/lib/thumb/v7-m/libc_nano.a(lib_a-mlock.o)
 .debug_frame   0x00000000000032d4       0x38 /home/gwarchol/Ac6/SystemWorkbench/plugins/fr.ac6.mcu.externaltools.arm-none.linux64_1.15.0.201708311556/tools/compiler/bin/../lib/gcc/arm-none-eabi/6.3.1/../../../../arm-none-eabi/lib/thumb/v7-m/libc_nano.a(lib_a-nano-freer.o)
 .debug_frame   0x000000000000330c       0x90 /home/gwarchol/Ac6/SystemWorkbench/plugins/fr.ac6.mcu.externaltools.arm-none.linux64_1.15.0.201708311556/tools/compiler/bin/../lib/gcc/arm-none-eabi/6.3.1/../../../../arm-none-eabi/lib/thumb/v7-m/libc_nano.a(lib_a-nano-svfprintf.o)
 .debug_frame   0x000000000000339c       0xac /home/gwarchol/Ac6/SystemWorkbench/plugins/fr.ac6.mcu.externaltools.arm-none.linux64_1.15.0.201708311556/tools/compiler/bin/../lib/gcc/arm-none-eabi/6.3.1/../../../../arm-none-eabi/lib/thumb/v7-m/libc_nano.a(lib_a-nano-vfprintf.o)
 .debug_frame   0x0000000000003448       0x60 /home/gwarchol/Ac6/SystemWorkbench/plugins/fr.ac6.mcu.externaltools.arm-none.linux64_1.15.0.201708311556/tools/compiler/bin/../lib/gcc/arm-none-eabi/6.3.1/../../../../arm-none-eabi/lib/thumb/v7-m/libc_nano.a(lib_a-nano-vfprintf_i.o)
 .debug_frame   0x00000000000034a8       0x48 /home/gwarchol/Ac6/SystemWorkbench/plugins/fr.ac6.mcu.externaltools.arm-none.linux64_1.15.0.201708311556/tools/compiler/bin/../lib/gcc/arm-none-eabi/6.3.1/../../../../arm-none-eabi/lib/thumb/v7-m/libc_nano.a(lib_a-putc.o)
 .debug_frame   0x00000000000034f0       0x2c /home/gwarchol/Ac6/SystemWorkbench/plugins/fr.ac6.mcu.externaltools.arm-none.linux64_1.15.0.201708311556/tools/compiler/bin/../lib/gcc/arm-none-eabi/6.3.1/../../../../arm-none-eabi/lib/thumb/v7-m/libc_nano.a(lib_a-readr.o)
 .debug_frame   0x000000000000351c       0x5c /home/gwarchol/Ac6/SystemWorkbench/plugins/fr.ac6.mcu.externaltools.arm-none.linux64_1.15.0.201708311556/tools/compiler/bin/../lib/gcc/arm-none-eabi/6.3.1/../../../../arm-none-eabi/lib/thumb/v7-m/libc_nano.a(lib_a-reent.o)
 .debug_frame   0x0000000000003578       0x2c /home/gwarchol/Ac6/SystemWorkbench/plugins/fr.ac6.mcu.externaltools.arm-none.linux64_1.15.0.201708311556/tools/compiler/bin/../lib/gcc/arm-none-eabi/6.3.1/../../../../arm-none-eabi/lib/thumb/v7-m/libc_nano.a(lib_a-fstatr.o)
 .debug_frame   0x00000000000035a4       0x2c /home/gwarchol/Ac6/SystemWorkbench/plugins/fr.ac6.mcu.externaltools.arm-none.linux64_1.15.0.201708311556/tools/compiler/bin/../lib/gcc/arm-none-eabi/6.3.1/../../../../arm-none-eabi/lib/thumb/v7-m/libc_nano.a(lib_a-isattyr.o)
 .debug_frame   0x00000000000035d0       0x28 /home/gwarchol/Ac6/SystemWorkbench/plugins/fr.ac6.mcu.externaltools.arm-none.linux64_1.15.0.201708311556/tools/compiler/bin/../lib/gcc/arm-none-eabi/6.3.1/../../../../arm-none-eabi/lib/thumb/v7-m/libc_nano.a(lib_a-memchr-stub.o)
 .debug_frame   0x00000000000035f8       0x28 /home/gwarchol/Ac6/SystemWorkbench/plugins/fr.ac6.mcu.externaltools.arm-none.linux64_1.15.0.201708311556/tools/compiler/bin/../lib/gcc/arm-none-eabi/6.3.1/../../../../arm-none-eabi/lib/thumb/v7-m/libc_nano.a(lib_a-memcpy-stub.o)
 .debug_frame   0x0000000000003620       0x28 /home/gwarchol/Ac6/SystemWorkbench/plugins/fr.ac6.mcu.externaltools.arm-none.linux64_1.15.0.201708311556/tools/compiler/bin/../lib/gcc/arm-none-eabi/6.3.1/../../../../arm-none-eabi/lib/thumb/v7-m/libc_nano.a(lib_a-memmove.o)
 .debug_frame   0x0000000000003648       0x3c /home/gwarchol/Ac6/SystemWorkbench/plugins/fr.ac6.mcu.externaltools.arm-none.linux64_1.15.0.201708311556/tools/compiler/bin/../lib/gcc/arm-none-eabi/6.3.1/../../../../arm-none-eabi/lib/thumb/v7-m/libc_nano.a(lib_a-nano-reallocr.o)
 .debug_frame   0x0000000000003684       0x20 /home/gwarchol/Ac6/SystemWorkbench/plugins/fr.ac6.mcu.externaltools.arm-none.linux64_1.15.0.201708311556/tools/compiler/bin/../lib/gcc/arm-none-eabi/6.3.1/../../../../arm-none-eabi/lib/thumb/v7-m/libc_nano.a(lib_a-nano-msizer.o)

.debug_info     0x0000000000000000    0x18069
 .debug_info    0x0000000000000000      0x4ed StdPeriph_Driver/src/misc.o
 .debug_info    0x00000000000004ed      0x7d3 StdPeriph_Driver/src/stm32f10x_bkp.o
 .debug_info    0x0000000000000cc0      0x15b StdPeriph_Driver/src/stm32f10x_dbgmcu.o
 .debug_info    0x0000000000000e1b      0x46d StdPeriph_Driver/src/stm32f10x_dma.o
 .debug_info    0x0000000000001288      0x34d StdPeriph_Driver/src/stm32f10x_exti.o
 .debug_info    0x00000000000015d5      0xa01 StdPeriph_Driver/src/stm32f10x_flash.o
 .debug_info    0x0000000000001fd6      0x886 StdPeriph_Driver/src/stm32f10x_gpio.o
 .debug_info    0x000000000000285c      0xb87 StdPeriph_Driver/src/stm32f10x_i2c.o
 .debug_info    0x00000000000033e3      0x49d StdPeriph_Driver/src/stm32f10x_pwr.o
 .debug_info    0x0000000000003880      0x8ce StdPeriph_Driver/src/stm32f10x_rcc.o
 .debug_info    0x000000000000414e      0x49b StdPeriph_Driver/src/stm32f10x_rtc.o
 .debug_info    0x00000000000045e9      0x9c2 StdPeriph_Driver/src/stm32f10x_spi.o
 .debug_info    0x0000000000004fab     0x218f StdPeriph_Driver/src/stm32f10x_tim.o
 .debug_info    0x000000000000713a      0xb1d StdPeriph_Driver/src/stm32f10x_usart.o
 .debug_info    0x0000000000007c57      0x988 lib/ILI9341/core.o
 .debug_info    0x00000000000085df      0x66a lib/ILI9341/delay.o
 .debug_info    0x0000000000008c49     0x130a lib/ILI9341/dma.o
 .debug_info    0x0000000000009f53     0x2746 lib/ILI9341/graph.o
 .debug_info    0x000000000000c699      0x77d lib/ILI9341/text.o
 .debug_info    0x000000000000ce16      0x997 src/DFPPlayer.o
 .debug_info    0x000000000000d7ad     0x12a5 src/bmp180.o
 .debug_info    0x000000000000ea52      0x933 src/device_config.o
 .debug_info    0x000000000000f385     0x138a src/main.o
 .debug_info    0x000000000001070f     0x2300 src/menu.o
 .debug_info    0x0000000000012a0f     0x1739 src/rtc.o
 .debug_info    0x0000000000014148      0xae1 src/scan_timer.o
 .debug_info    0x0000000000014c29      0x46d src/system_stm32f10x.o
 .debug_info    0x0000000000015096      0xa69 src/timers.o
 .debug_info    0x0000000000015aff     0x24fb src/touch_screen.o
 .debug_info    0x0000000000017ffa       0x6f startup/startup_stm32.o

.debug_abbrev   0x0000000000000000     0x3d46
 .debug_abbrev  0x0000000000000000      0x190 StdPeriph_Driver/src/misc.o
 .debug_abbrev  0x0000000000000190      0x1a4 StdPeriph_Driver/src/stm32f10x_bkp.o
 .debug_abbrev  0x0000000000000334      0x102 StdPeriph_Driver/src/stm32f10x_dbgmcu.o
 .debug_abbrev  0x0000000000000436      0x191 StdPeriph_Driver/src/stm32f10x_dma.o
 .debug_abbrev  0x00000000000005c7      0x177 StdPeriph_Driver/src/stm32f10x_exti.o
 .debug_abbrev  0x000000000000073e      0x1c2 StdPeriph_Driver/src/stm32f10x_flash.o
 .debug_abbrev  0x0000000000000900      0x200 StdPeriph_Driver/src/stm32f10x_gpio.o
 .debug_abbrev  0x0000000000000b00      0x1db StdPeriph_Driver/src/stm32f10x_i2c.o
 .debug_abbrev  0x0000000000000cdb      0x1da StdPeriph_Driver/src/stm32f10x_pwr.o
 .debug_abbrev  0x0000000000000eb5      0x1f5 StdPeriph_Driver/src/stm32f10x_rcc.o
 .debug_abbrev  0x00000000000010aa      0x1ba StdPeriph_Driver/src/stm32f10x_rtc.o
 .debug_abbrev  0x0000000000001264      0x1db StdPeriph_Driver/src/stm32f10x_spi.o
 .debug_abbrev  0x000000000000143f      0x1ef StdPeriph_Driver/src/stm32f10x_tim.o
 .debug_abbrev  0x000000000000162e      0x1d9 StdPeriph_Driver/src/stm32f10x_usart.o
 .debug_abbrev  0x0000000000001807      0x218 lib/ILI9341/core.o
 .debug_abbrev  0x0000000000001a1f      0x208 lib/ILI9341/delay.o
 .debug_abbrev  0x0000000000001c27      0x29f lib/ILI9341/dma.o
 .debug_abbrev  0x0000000000001ec6      0x26c lib/ILI9341/graph.o
 .debug_abbrev  0x0000000000002132      0x20a lib/ILI9341/text.o
 .debug_abbrev  0x000000000000233c      0x276 src/DFPPlayer.o
 .debug_abbrev  0x00000000000025b2      0x271 src/bmp180.o
 .debug_abbrev  0x0000000000002823      0x219 src/device_config.o
 .debug_abbrev  0x0000000000002a3c      0x2d6 src/main.o
 .debug_abbrev  0x0000000000002d12      0x33c src/menu.o
 .debug_abbrev  0x000000000000304e      0x301 src/rtc.o
 .debug_abbrev  0x000000000000334f      0x206 src/scan_timer.o
 .debug_abbrev  0x0000000000003555      0x19d src/system_stm32f10x.o
 .debug_abbrev  0x00000000000036f2      0x196 src/timers.o
 .debug_abbrev  0x0000000000003888      0x4ac src/touch_screen.o
 .debug_abbrev  0x0000000000003d34       0x12 startup/startup_stm32.o

.debug_loc      0x0000000000000000     0x9318
 .debug_loc     0x0000000000000000      0x105 StdPeriph_Driver/src/misc.o
 .debug_loc     0x0000000000000105       0xd8 StdPeriph_Driver/src/stm32f10x_bkp.o
 .debug_loc     0x00000000000001dd       0x3a StdPeriph_Driver/src/stm32f10x_dbgmcu.o
 .debug_loc     0x0000000000000217      0x1d2 StdPeriph_Driver/src/stm32f10x_dma.o
 .debug_loc     0x00000000000003e9      0x170 StdPeriph_Driver/src/stm32f10x_exti.o
 .debug_loc     0x0000000000000559      0x6f4 StdPeriph_Driver/src/stm32f10x_flash.o
 .debug_loc     0x0000000000000c4d      0x5f9 StdPeriph_Driver/src/stm32f10x_gpio.o
 .debug_loc     0x0000000000001246      0x645 StdPeriph_Driver/src/stm32f10x_i2c.o
 .debug_loc     0x000000000000188b      0x11c StdPeriph_Driver/src/stm32f10x_pwr.o
 .debug_loc     0x00000000000019a7      0x6d0 StdPeriph_Driver/src/stm32f10x_rcc.o
 .debug_loc     0x0000000000002077      0x25a StdPeriph_Driver/src/stm32f10x_rtc.o
 .debug_loc     0x00000000000022d1      0x61d StdPeriph_Driver/src/stm32f10x_spi.o
 .debug_loc     0x00000000000028ee     0x1a95 StdPeriph_Driver/src/stm32f10x_tim.o
 .debug_loc     0x0000000000004383      0x7c1 StdPeriph_Driver/src/stm32f10x_usart.o
 .debug_loc     0x0000000000004b44      0x114 lib/ILI9341/core.o
 .debug_loc     0x0000000000004c58      0x174 lib/ILI9341/delay.o
 .debug_loc     0x0000000000004dcc      0x62e lib/ILI9341/dma.o
 .debug_loc     0x00000000000053fa     0x23f2 lib/ILI9341/graph.o
 .debug_loc     0x00000000000077ec      0x829 lib/ILI9341/text.o
 .debug_loc     0x0000000000008015      0x1a8 src/DFPPlayer.o
 .debug_loc     0x00000000000081bd      0x52a src/bmp180.o
 .debug_loc     0x00000000000086e7       0x58 src/device_config.o
 .debug_loc     0x000000000000873f       0xb1 src/main.o
 .debug_loc     0x00000000000087f0       0x21 src/menu.o
 .debug_loc     0x0000000000008811      0x685 src/rtc.o
 .debug_loc     0x0000000000008e96       0x85 src/scan_timer.o
 .debug_loc     0x0000000000008f1b       0xdf src/system_stm32f10x.o
 .debug_loc     0x0000000000008ffa      0x31e src/touch_screen.o

.debug_aranges  0x0000000000000000     0x11f0
 .debug_aranges
                0x0000000000000000       0x40 StdPeriph_Driver/src/misc.o
 .debug_aranges
                0x0000000000000040       0x78 StdPeriph_Driver/src/stm32f10x_bkp.o
 .debug_aranges
                0x00000000000000b8       0x30 StdPeriph_Driver/src/stm32f10x_dbgmcu.o
 .debug_aranges
                0x00000000000000e8       0x70 StdPeriph_Driver/src/stm32f10x_dma.o
 .debug_aranges
                0x0000000000000158       0x58 StdPeriph_Driver/src/stm32f10x_exti.o
 .debug_aranges
                0x00000000000001b0       0xf8 StdPeriph_Driver/src/stm32f10x_flash.o
 .debug_aranges
                0x00000000000002a8       0xa8 StdPeriph_Driver/src/stm32f10x_gpio.o
 .debug_aranges
                0x0000000000000350      0x120 StdPeriph_Driver/src/stm32f10x_i2c.o
 .debug_aranges
                0x0000000000000470       0x60 StdPeriph_Driver/src/stm32f10x_pwr.o
 .debug_aranges
                0x00000000000004d0      0x118 StdPeriph_Driver/src/stm32f10x_rcc.o
 .debug_aranges
                0x00000000000005e8       0x90 StdPeriph_Driver/src/stm32f10x_rtc.o
 .debug_aranges
                0x0000000000000678       0xd0 StdPeriph_Driver/src/stm32f10x_spi.o
 .debug_aranges
                0x0000000000000748      0x2f0 StdPeriph_Driver/src/stm32f10x_tim.o
 .debug_aranges
                0x0000000000000a38      0x100 StdPeriph_Driver/src/stm32f10x_usart.o
 .debug_aranges
                0x0000000000000b38       0x70 lib/ILI9341/core.o
 .debug_aranges
                0x0000000000000ba8       0x30 lib/ILI9341/delay.o
 .debug_aranges
                0x0000000000000bd8       0x80 lib/ILI9341/dma.o
 .debug_aranges
                0x0000000000000c58       0x80 lib/ILI9341/graph.o
 .debug_aranges
                0x0000000000000cd8       0x58 lib/ILI9341/text.o
 .debug_aranges
                0x0000000000000d30       0x58 src/DFPPlayer.o
 .debug_aranges
                0x0000000000000d88       0x80 src/bmp180.o
 .debug_aranges
                0x0000000000000e08       0x58 src/device_config.o
 .debug_aranges
                0x0000000000000e60       0x28 src/main.o
 .debug_aranges
                0x0000000000000e88       0xb0 src/menu.o
 .debug_aranges
                0x0000000000000f38      0x148 src/rtc.o
 .debug_aranges
                0x0000000000001080       0x40 src/scan_timer.o
 .debug_aranges
                0x00000000000010c0       0x38 src/system_stm32f10x.o
 .debug_aranges
                0x00000000000010f8       0x28 src/timers.o
 .debug_aranges
                0x0000000000001120       0xa8 src/touch_screen.o
 .debug_aranges
                0x00000000000011c8       0x28 startup/startup_stm32.o

.debug_ranges   0x0000000000000000     0x11b0
 .debug_ranges  0x0000000000000000       0x30 StdPeriph_Driver/src/misc.o
 .debug_ranges  0x0000000000000030       0x68 StdPeriph_Driver/src/stm32f10x_bkp.o
 .debug_ranges  0x0000000000000098       0x20 StdPeriph_Driver/src/stm32f10x_dbgmcu.o
 .debug_ranges  0x00000000000000b8       0x60 StdPeriph_Driver/src/stm32f10x_dma.o
 .debug_ranges  0x0000000000000118       0x48 StdPeriph_Driver/src/stm32f10x_exti.o
 .debug_ranges  0x0000000000000160       0xe8 StdPeriph_Driver/src/stm32f10x_flash.o
 .debug_ranges  0x0000000000000248       0x98 StdPeriph_Driver/src/stm32f10x_gpio.o
 .debug_ranges  0x00000000000002e0      0x110 StdPeriph_Driver/src/stm32f10x_i2c.o
 .debug_ranges  0x00000000000003f0       0x50 StdPeriph_Driver/src/stm32f10x_pwr.o
 .debug_ranges  0x0000000000000440      0x108 StdPeriph_Driver/src/stm32f10x_rcc.o
 .debug_ranges  0x0000000000000548       0x80 StdPeriph_Driver/src/stm32f10x_rtc.o
 .debug_ranges  0x00000000000005c8       0xc0 StdPeriph_Driver/src/stm32f10x_spi.o
 .debug_ranges  0x0000000000000688      0x2e0 StdPeriph_Driver/src/stm32f10x_tim.o
 .debug_ranges  0x0000000000000968       0xf0 StdPeriph_Driver/src/stm32f10x_usart.o
 .debug_ranges  0x0000000000000a58       0x60 lib/ILI9341/core.o
 .debug_ranges  0x0000000000000ab8       0x20 lib/ILI9341/delay.o
 .debug_ranges  0x0000000000000ad8       0x88 lib/ILI9341/dma.o
 .debug_ranges  0x0000000000000b60      0x148 lib/ILI9341/graph.o
 .debug_ranges  0x0000000000000ca8       0x90 lib/ILI9341/text.o
 .debug_ranges  0x0000000000000d38       0x48 src/DFPPlayer.o
 .debug_ranges  0x0000000000000d80       0x70 src/bmp180.o
 .debug_ranges  0x0000000000000df0       0x48 src/device_config.o
 .debug_ranges  0x0000000000000e38       0x18 src/main.o
 .debug_ranges  0x0000000000000e50       0xb8 src/menu.o
 .debug_ranges  0x0000000000000f08      0x150 src/rtc.o
 .debug_ranges  0x0000000000001058       0x30 src/scan_timer.o
 .debug_ranges  0x0000000000001088       0x28 src/system_stm32f10x.o
 .debug_ranges  0x00000000000010b0       0x18 src/timers.o
 .debug_ranges  0x00000000000010c8       0xc8 src/touch_screen.o
 .debug_ranges  0x0000000000001190       0x20 startup/startup_stm32.o

.debug_line     0x0000000000000000     0x8285
 .debug_line    0x0000000000000000      0x2e1 StdPeriph_Driver/src/misc.o
 .debug_line    0x00000000000002e1      0x35f StdPeriph_Driver/src/stm32f10x_bkp.o
 .debug_line    0x0000000000000640      0x26a StdPeriph_Driver/src/stm32f10x_dbgmcu.o
 .debug_line    0x00000000000008aa      0x398 StdPeriph_Driver/src/stm32f10x_dma.o
 .debug_line    0x0000000000000c42      0x341 StdPeriph_Driver/src/stm32f10x_exti.o
 .debug_line    0x0000000000000f83      0x585 StdPeriph_Driver/src/stm32f10x_flash.o
 .debug_line    0x0000000000001508      0x45b StdPeriph_Driver/src/stm32f10x_gpio.o
 .debug_line    0x0000000000001963      0x556 StdPeriph_Driver/src/stm32f10x_i2c.o
 .debug_line    0x0000000000001eb9      0x343 StdPeriph_Driver/src/stm32f10x_pwr.o
 .debug_line    0x00000000000021fc      0x537 StdPeriph_Driver/src/stm32f10x_rcc.o
 .debug_line    0x0000000000002733      0x35b StdPeriph_Driver/src/stm32f10x_rtc.o
 .debug_line    0x0000000000002a8e      0x49d StdPeriph_Driver/src/stm32f10x_spi.o
 .debug_line    0x0000000000002f2b      0xb43 StdPeriph_Driver/src/stm32f10x_tim.o
 .debug_line    0x0000000000003a6e      0x51e StdPeriph_Driver/src/stm32f10x_usart.o
 .debug_line    0x0000000000003f8c      0x3cb lib/ILI9341/core.o
 .debug_line    0x0000000000004357      0x285 lib/ILI9341/delay.o
 .debug_line    0x00000000000045dc      0x4f6 lib/ILI9341/dma.o
 .debug_line    0x0000000000004ad2      0x568 lib/ILI9341/graph.o
 .debug_line    0x000000000000503a      0x376 lib/ILI9341/text.o
 .debug_line    0x00000000000053b0      0x3ed src/DFPPlayer.o
 .debug_line    0x000000000000579d      0x52a src/bmp180.o
 .debug_line    0x0000000000005cc7      0x391 src/device_config.o
 .debug_line    0x0000000000006058      0x4c7 src/main.o
 .debug_line    0x000000000000651f      0x622 src/menu.o
 .debug_line    0x0000000000006b41      0x75a src/rtc.o
 .debug_line    0x000000000000729b      0x35b src/scan_timer.o
 .debug_line    0x00000000000075f6      0x2d0 src/system_stm32f10x.o
 .debug_line    0x00000000000078c6      0x2e4 src/timers.o
 .debug_line    0x0000000000007baa      0x65f src/touch_screen.o
 .debug_line    0x0000000000008209       0x7c startup/startup_stm32.o

.debug_str      0x0000000000000000     0x4b73
 .debug_str     0x0000000000000000      0x3b4 StdPeriph_Driver/src/misc.o
                                        0x3f9 (size before relaxing)
 .debug_str     0x00000000000003b4      0x3d6 StdPeriph_Driver/src/stm32f10x_bkp.o
                                        0x609 (size before relaxing)
 .debug_str     0x000000000000078a       0x7d StdPeriph_Driver/src/stm32f10x_dbgmcu.o
                                        0x233 (size before relaxing)
 .debug_str     0x0000000000000807      0x20d StdPeriph_Driver/src/stm32f10x_dma.o
                                        0x3f8 (size before relaxing)
 .debug_str     0x0000000000000a14      0x1b9 StdPeriph_Driver/src/stm32f10x_exti.o
                                        0x38a (size before relaxing)
 .debug_str     0x0000000000000bcd      0x412 StdPeriph_Driver/src/stm32f10x_flash.o
                                        0x629 (size before relaxing)
 .debug_str     0x0000000000000fdf      0x37a StdPeriph_Driver/src/stm32f10x_gpio.o
                                        0x571 (size before relaxing)
 .debug_str     0x0000000000001359      0x447 StdPeriph_Driver/src/stm32f10x_i2c.o
                                        0x6d0 (size before relaxing)
 .debug_str     0x00000000000017a0      0x107 StdPeriph_Driver/src/stm32f10x_pwr.o
                                        0x36a (size before relaxing)
 .debug_str     0x00000000000018a7      0x364 StdPeriph_Driver/src/stm32f10x_rcc.o
                                        0x65b (size before relaxing)
 .debug_str     0x0000000000001c0b      0x17f StdPeriph_Driver/src/stm32f10x_rtc.o
                                        0x3f0 (size before relaxing)
 .debug_str     0x0000000000001d8a      0x357 StdPeriph_Driver/src/stm32f10x_spi.o
                                        0x67e (size before relaxing)
 .debug_str     0x00000000000020e1      0xaf4 StdPeriph_Driver/src/stm32f10x_tim.o
                                        0xe4c (size before relaxing)
 .debug_str     0x0000000000002bd5      0x40f StdPeriph_Driver/src/stm32f10x_usart.o
                                        0x711 (size before relaxing)
 .debug_str     0x0000000000002fe4      0x154 lib/ILI9341/core.o
                                        0x5b2 (size before relaxing)
 .debug_str     0x0000000000003138      0x32a lib/ILI9341/delay.o
                                        0x5bf (size before relaxing)
 .debug_str     0x0000000000003462      0x116 lib/ILI9341/dma.o
                                        0x869 (size before relaxing)
 .debug_str     0x0000000000003578      0x133 lib/ILI9341/graph.o
                                        0x3ae (size before relaxing)
 .debug_str     0x00000000000036ab      0x13a lib/ILI9341/text.o
                                        0x377 (size before relaxing)
 .debug_str     0x00000000000037e5      0x132 src/DFPPlayer.o
                                        0x8f5 (size before relaxing)
 .debug_str     0x0000000000003917      0x162 src/bmp180.o
                                        0x631 (size before relaxing)
 .debug_str     0x0000000000003a79       0xcd src/device_config.o
                                        0x9ab (size before relaxing)
 .debug_str     0x0000000000003b46      0x50b src/main.o
                                        0x888 (size before relaxing)
 .debug_str     0x0000000000004051      0x3b9 src/menu.o
                                        0xaa7 (size before relaxing)
 .debug_str     0x000000000000440a      0x2ac src/rtc.o
                                        0xb03 (size before relaxing)
 .debug_str     0x00000000000046b6       0xae src/scan_timer.o
                                        0x9b9 (size before relaxing)
 .debug_str     0x0000000000004764       0x57 src/system_stm32f10x.o
                                        0x300 (size before relaxing)
 .debug_str     0x00000000000047bb       0x59 src/timers.o
                                        0x95c (size before relaxing)
 .debug_str     0x0000000000004814      0x35f src/touch_screen.o
                                       0x127c (size before relaxing)

.comment        0x0000000000000000       0x7f
 .comment       0x0000000000000000       0x7f StdPeriph_Driver/src/misc.o
                                         0x80 (size before relaxing)
 .comment       0x000000000000007f       0x80 StdPeriph_Driver/src/stm32f10x_bkp.o
 .comment       0x000000000000007f       0x80 StdPeriph_Driver/src/stm32f10x_dbgmcu.o
 .comment       0x000000000000007f       0x80 StdPeriph_Driver/src/stm32f10x_dma.o
 .comment       0x000000000000007f       0x80 StdPeriph_Driver/src/stm32f10x_exti.o
 .comment       0x000000000000007f       0x80 StdPeriph_Driver/src/stm32f10x_flash.o
 .comment       0x000000000000007f       0x80 StdPeriph_Driver/src/stm32f10x_gpio.o
 .comment       0x000000000000007f       0x80 StdPeriph_Driver/src/stm32f10x_i2c.o
 .comment       0x000000000000007f       0x80 StdPeriph_Driver/src/stm32f10x_pwr.o
 .comment       0x000000000000007f       0x80 StdPeriph_Driver/src/stm32f10x_rcc.o
 .comment       0x000000000000007f       0x80 StdPeriph_Driver/src/stm32f10x_rtc.o
 .comment       0x000000000000007f       0x80 StdPeriph_Driver/src/stm32f10x_spi.o
 .comment       0x000000000000007f       0x80 StdPeriph_Driver/src/stm32f10x_tim.o
 .comment       0x000000000000007f       0x80 StdPeriph_Driver/src/stm32f10x_usart.o
 .comment       0x000000000000007f       0x80 lib/ILI9341/core.o
 .comment       0x000000000000007f       0x80 lib/ILI9341/delay.o
 .comment       0x000000000000007f       0x80 lib/ILI9341/dma.o
 .comment       0x000000000000007f       0x80 lib/ILI9341/graph.o
 .comment       0x000000000000007f       0x80 lib/ILI9341/text.o
 .comment       0x000000000000007f       0x80 src/DFPPlayer.o
 .comment       0x000000000000007f       0x80 src/bmp180.o
 .comment       0x000000000000007f       0x80 src/device_config.o
 .comment       0x000000000000007f       0x80 src/main.o
 .comment       0x000000000000007f       0x80 src/menu.o
 .comment       0x000000000000007f       0x80 src/rtc.o
 .comment       0x000000000000007f       0x80 src/scan_timer.o
 .comment       0x000000000000007f       0x80 src/system_stm32f10x.o
 .comment       0x000000000000007f       0x80 src/timers.o
 .comment       0x000000000000007f       0x80 src/touch_screen.o
